ARM GAS  C:\Users\jhorel\AppData\Local\Temp\ccC8x7vY.s 			page 1


   1              		.cpu cortex-m0
   2              		.fpu softvfp
   3              		.eabi_attribute 20, 1
   4              		.eabi_attribute 21, 1
   5              		.eabi_attribute 23, 3
   6              		.eabi_attribute 24, 1
   7              		.eabi_attribute 25, 1
   8              		.eabi_attribute 26, 1
   9              		.eabi_attribute 30, 1
  10              		.eabi_attribute 34, 0
  11              		.eabi_attribute 18, 4
  12              		.code	16
  13              		.file	"cyfitter_cfg.c"
  14              		.text
  15              	.Ltext0:
  16              		.cfi_sections	.debug_frame
  17              		.section	.text.cfg_write_bytes32,"ax",%progbits
  18              		.align	2
  19              		.code	16
  20              		.thumb_func
  21              		.type	cfg_write_bytes32, %function
  22              	cfg_write_bytes32:
  23              	.LFB5:
  24              		.file 1 ".\\Generated_Source\\PSoC4\\cyfitter_cfg.c"
   1:.\Generated_Source\PSoC4/cyfitter_cfg.c **** /*******************************************************************************
   2:.\Generated_Source\PSoC4/cyfitter_cfg.c **** * File Name: cyfitter_cfg.c
   3:.\Generated_Source\PSoC4/cyfitter_cfg.c **** * 
   4:.\Generated_Source\PSoC4/cyfitter_cfg.c **** * PSoC Creator  3.3 CP3
   5:.\Generated_Source\PSoC4/cyfitter_cfg.c **** *
   6:.\Generated_Source\PSoC4/cyfitter_cfg.c **** * Description:
   7:.\Generated_Source\PSoC4/cyfitter_cfg.c **** * This file contains device initialization code.
   8:.\Generated_Source\PSoC4/cyfitter_cfg.c **** * Except for the user defined sections in CyClockStartupError(), this file should not be modified.
   9:.\Generated_Source\PSoC4/cyfitter_cfg.c **** * This file is automatically generated by PSoC Creator.
  10:.\Generated_Source\PSoC4/cyfitter_cfg.c **** *
  11:.\Generated_Source\PSoC4/cyfitter_cfg.c **** ********************************************************************************
  12:.\Generated_Source\PSoC4/cyfitter_cfg.c **** * Copyright (c) 2007-2016 Cypress Semiconductor.  All rights reserved.
  13:.\Generated_Source\PSoC4/cyfitter_cfg.c **** * You may use this file only in accordance with the license, terms, conditions, 
  14:.\Generated_Source\PSoC4/cyfitter_cfg.c **** * disclaimers, and limitations in the end user license agreement accompanying 
  15:.\Generated_Source\PSoC4/cyfitter_cfg.c **** * the software package with which this file was provided.
  16:.\Generated_Source\PSoC4/cyfitter_cfg.c **** ********************************************************************************/
  17:.\Generated_Source\PSoC4/cyfitter_cfg.c **** 
  18:.\Generated_Source\PSoC4/cyfitter_cfg.c **** #include <string.h>
  19:.\Generated_Source\PSoC4/cyfitter_cfg.c **** #include "cytypes.h"
  20:.\Generated_Source\PSoC4/cyfitter_cfg.c **** #include "cydevice_trm.h"
  21:.\Generated_Source\PSoC4/cyfitter_cfg.c **** #include "cyfitter.h"
  22:.\Generated_Source\PSoC4/cyfitter_cfg.c **** #include "CyLib.h"
  23:.\Generated_Source\PSoC4/cyfitter_cfg.c **** #include "CyLFClk.h"
  24:.\Generated_Source\PSoC4/cyfitter_cfg.c **** #include "cyfitter_cfg.h"
  25:.\Generated_Source\PSoC4/cyfitter_cfg.c **** 
  26:.\Generated_Source\PSoC4/cyfitter_cfg.c **** 
  27:.\Generated_Source\PSoC4/cyfitter_cfg.c **** #if defined(__GNUC__) || defined(__ARMCC_VERSION)
  28:.\Generated_Source\PSoC4/cyfitter_cfg.c ****     #define CYPACKED 
  29:.\Generated_Source\PSoC4/cyfitter_cfg.c ****     #define CYPACKED_ATTR __attribute__ ((packed))
  30:.\Generated_Source\PSoC4/cyfitter_cfg.c ****     #define CYALIGNED __attribute__ ((aligned))
  31:.\Generated_Source\PSoC4/cyfitter_cfg.c ****     #define CY_CFG_UNUSED __attribute__ ((unused))
  32:.\Generated_Source\PSoC4/cyfitter_cfg.c ****     #ifndef CY_CFG_SECTION
  33:.\Generated_Source\PSoC4/cyfitter_cfg.c ****         #define CY_CFG_SECTION __attribute__ ((section(".psocinit")))
ARM GAS  C:\Users\jhorel\AppData\Local\Temp\ccC8x7vY.s 			page 2


  34:.\Generated_Source\PSoC4/cyfitter_cfg.c ****     #endif
  35:.\Generated_Source\PSoC4/cyfitter_cfg.c ****     
  36:.\Generated_Source\PSoC4/cyfitter_cfg.c ****     #if defined(__ARMCC_VERSION)
  37:.\Generated_Source\PSoC4/cyfitter_cfg.c ****         #define CY_CFG_MEMORY_BARRIER() __memory_changed()
  38:.\Generated_Source\PSoC4/cyfitter_cfg.c ****     #else
  39:.\Generated_Source\PSoC4/cyfitter_cfg.c ****         #define CY_CFG_MEMORY_BARRIER() __sync_synchronize()
  40:.\Generated_Source\PSoC4/cyfitter_cfg.c ****     #endif
  41:.\Generated_Source\PSoC4/cyfitter_cfg.c ****     
  42:.\Generated_Source\PSoC4/cyfitter_cfg.c **** #elif defined(__ICCARM__)
  43:.\Generated_Source\PSoC4/cyfitter_cfg.c ****     #include <intrinsics.h>
  44:.\Generated_Source\PSoC4/cyfitter_cfg.c **** 
  45:.\Generated_Source\PSoC4/cyfitter_cfg.c ****     #define CYPACKED __packed
  46:.\Generated_Source\PSoC4/cyfitter_cfg.c ****     #define CYPACKED_ATTR 
  47:.\Generated_Source\PSoC4/cyfitter_cfg.c ****     #define CYALIGNED _Pragma("data_alignment=4")
  48:.\Generated_Source\PSoC4/cyfitter_cfg.c ****     #define CY_CFG_UNUSED _Pragma("diag_suppress=Pe177")
  49:.\Generated_Source\PSoC4/cyfitter_cfg.c ****     #define CY_CFG_SECTION _Pragma("location=\".psocinit\"")
  50:.\Generated_Source\PSoC4/cyfitter_cfg.c ****     
  51:.\Generated_Source\PSoC4/cyfitter_cfg.c ****     #define CY_CFG_MEMORY_BARRIER() __DMB()
  52:.\Generated_Source\PSoC4/cyfitter_cfg.c ****     
  53:.\Generated_Source\PSoC4/cyfitter_cfg.c **** #else
  54:.\Generated_Source\PSoC4/cyfitter_cfg.c ****     #error Unsupported toolchain
  55:.\Generated_Source\PSoC4/cyfitter_cfg.c **** #endif
  56:.\Generated_Source\PSoC4/cyfitter_cfg.c **** 
  57:.\Generated_Source\PSoC4/cyfitter_cfg.c **** 
  58:.\Generated_Source\PSoC4/cyfitter_cfg.c **** CY_CFG_UNUSED
  59:.\Generated_Source\PSoC4/cyfitter_cfg.c **** static void CYMEMZERO(void *s, size_t n);
  60:.\Generated_Source\PSoC4/cyfitter_cfg.c **** CY_CFG_UNUSED
  61:.\Generated_Source\PSoC4/cyfitter_cfg.c **** static void CYMEMZERO(void *s, size_t n)
  62:.\Generated_Source\PSoC4/cyfitter_cfg.c **** {
  63:.\Generated_Source\PSoC4/cyfitter_cfg.c **** 	(void)memset(s, 0, n);
  64:.\Generated_Source\PSoC4/cyfitter_cfg.c **** }
  65:.\Generated_Source\PSoC4/cyfitter_cfg.c **** CY_CFG_UNUSED
  66:.\Generated_Source\PSoC4/cyfitter_cfg.c **** static void CYCONFIGCPY(void *dest, const void *src, size_t n);
  67:.\Generated_Source\PSoC4/cyfitter_cfg.c **** CY_CFG_UNUSED
  68:.\Generated_Source\PSoC4/cyfitter_cfg.c **** static void CYCONFIGCPY(void *dest, const void *src, size_t n)
  69:.\Generated_Source\PSoC4/cyfitter_cfg.c **** {
  70:.\Generated_Source\PSoC4/cyfitter_cfg.c **** 	(void)memcpy(dest, src, n);
  71:.\Generated_Source\PSoC4/cyfitter_cfg.c **** }
  72:.\Generated_Source\PSoC4/cyfitter_cfg.c **** CY_CFG_UNUSED
  73:.\Generated_Source\PSoC4/cyfitter_cfg.c **** static void CYCONFIGCPYCODE(void *dest, const void *src, size_t n);
  74:.\Generated_Source\PSoC4/cyfitter_cfg.c **** CY_CFG_UNUSED
  75:.\Generated_Source\PSoC4/cyfitter_cfg.c **** static void CYCONFIGCPYCODE(void *dest, const void *src, size_t n)
  76:.\Generated_Source\PSoC4/cyfitter_cfg.c **** {
  77:.\Generated_Source\PSoC4/cyfitter_cfg.c **** 	(void)memcpy(dest, src, n);
  78:.\Generated_Source\PSoC4/cyfitter_cfg.c **** }
  79:.\Generated_Source\PSoC4/cyfitter_cfg.c **** 
  80:.\Generated_Source\PSoC4/cyfitter_cfg.c **** 
  81:.\Generated_Source\PSoC4/cyfitter_cfg.c **** 
  82:.\Generated_Source\PSoC4/cyfitter_cfg.c **** /* Clock startup error codes                                                   */
  83:.\Generated_Source\PSoC4/cyfitter_cfg.c **** #define CYCLOCKSTART_NO_ERROR    0u
  84:.\Generated_Source\PSoC4/cyfitter_cfg.c **** #define CYCLOCKSTART_XTAL_ERROR  1u
  85:.\Generated_Source\PSoC4/cyfitter_cfg.c **** #define CYCLOCKSTART_32KHZ_ERROR 2u
  86:.\Generated_Source\PSoC4/cyfitter_cfg.c **** #define CYCLOCKSTART_PLL_ERROR   3u
  87:.\Generated_Source\PSoC4/cyfitter_cfg.c **** 
  88:.\Generated_Source\PSoC4/cyfitter_cfg.c **** #ifdef CY_NEED_CYCLOCKSTARTUPERROR
  89:.\Generated_Source\PSoC4/cyfitter_cfg.c **** /*******************************************************************************
  90:.\Generated_Source\PSoC4/cyfitter_cfg.c **** * Function Name: CyClockStartupError
ARM GAS  C:\Users\jhorel\AppData\Local\Temp\ccC8x7vY.s 			page 3


  91:.\Generated_Source\PSoC4/cyfitter_cfg.c **** ********************************************************************************
  92:.\Generated_Source\PSoC4/cyfitter_cfg.c **** * Summary:
  93:.\Generated_Source\PSoC4/cyfitter_cfg.c **** *  If an error is encountered during clock configuration (crystal startup error,
  94:.\Generated_Source\PSoC4/cyfitter_cfg.c **** *  PLL lock error, etc.), the system will end up here.  Unless reimplemented by
  95:.\Generated_Source\PSoC4/cyfitter_cfg.c **** *  the customer, this function will stop in an infinite loop.
  96:.\Generated_Source\PSoC4/cyfitter_cfg.c **** *
  97:.\Generated_Source\PSoC4/cyfitter_cfg.c **** * Parameters:
  98:.\Generated_Source\PSoC4/cyfitter_cfg.c **** *   void
  99:.\Generated_Source\PSoC4/cyfitter_cfg.c **** *
 100:.\Generated_Source\PSoC4/cyfitter_cfg.c **** * Return:
 101:.\Generated_Source\PSoC4/cyfitter_cfg.c **** *   void
 102:.\Generated_Source\PSoC4/cyfitter_cfg.c **** *
 103:.\Generated_Source\PSoC4/cyfitter_cfg.c **** *******************************************************************************/
 104:.\Generated_Source\PSoC4/cyfitter_cfg.c **** CY_CFG_UNUSED
 105:.\Generated_Source\PSoC4/cyfitter_cfg.c **** static void CyClockStartupError(uint8 errorCode);
 106:.\Generated_Source\PSoC4/cyfitter_cfg.c **** CY_CFG_UNUSED
 107:.\Generated_Source\PSoC4/cyfitter_cfg.c **** static void CyClockStartupError(uint8 errorCode)
 108:.\Generated_Source\PSoC4/cyfitter_cfg.c **** {
 109:.\Generated_Source\PSoC4/cyfitter_cfg.c ****     /* To remove the compiler warning if errorCode not used.                */
 110:.\Generated_Source\PSoC4/cyfitter_cfg.c ****     errorCode = errorCode;
 111:.\Generated_Source\PSoC4/cyfitter_cfg.c **** 
 112:.\Generated_Source\PSoC4/cyfitter_cfg.c ****     /* `#START CyClockStartupError` */
 113:.\Generated_Source\PSoC4/cyfitter_cfg.c **** 
 114:.\Generated_Source\PSoC4/cyfitter_cfg.c ****     /* If we have a clock startup error (bad MHz crystal, PLL lock, etc.),  */
 115:.\Generated_Source\PSoC4/cyfitter_cfg.c ****     /* we will end up here to allow the customer to implement something to  */
 116:.\Generated_Source\PSoC4/cyfitter_cfg.c ****     /* deal with the clock condition.                                       */
 117:.\Generated_Source\PSoC4/cyfitter_cfg.c **** 
 118:.\Generated_Source\PSoC4/cyfitter_cfg.c ****     /* `#END` */
 119:.\Generated_Source\PSoC4/cyfitter_cfg.c **** 
 120:.\Generated_Source\PSoC4/cyfitter_cfg.c ****     /* If nothing else, stop here since the clocks have not started         */
 121:.\Generated_Source\PSoC4/cyfitter_cfg.c ****     /* correctly.                                                           */
 122:.\Generated_Source\PSoC4/cyfitter_cfg.c ****     while(1) {}
 123:.\Generated_Source\PSoC4/cyfitter_cfg.c **** }
 124:.\Generated_Source\PSoC4/cyfitter_cfg.c **** #endif
 125:.\Generated_Source\PSoC4/cyfitter_cfg.c **** 
 126:.\Generated_Source\PSoC4/cyfitter_cfg.c **** #define CY_CFG_BASE_ADDR_COUNT 9u
 127:.\Generated_Source\PSoC4/cyfitter_cfg.c **** CYPACKED typedef struct
 128:.\Generated_Source\PSoC4/cyfitter_cfg.c **** {
 129:.\Generated_Source\PSoC4/cyfitter_cfg.c **** 	uint8 offset;
 130:.\Generated_Source\PSoC4/cyfitter_cfg.c **** 	uint8 value;
 131:.\Generated_Source\PSoC4/cyfitter_cfg.c **** } CYPACKED_ATTR cy_cfg_addrvalue_t;
 132:.\Generated_Source\PSoC4/cyfitter_cfg.c **** 
 133:.\Generated_Source\PSoC4/cyfitter_cfg.c **** 
 134:.\Generated_Source\PSoC4/cyfitter_cfg.c **** 
 135:.\Generated_Source\PSoC4/cyfitter_cfg.c **** /*******************************************************************************
 136:.\Generated_Source\PSoC4/cyfitter_cfg.c **** * Function Name: cfg_write_bytes32
 137:.\Generated_Source\PSoC4/cyfitter_cfg.c **** ********************************************************************************
 138:.\Generated_Source\PSoC4/cyfitter_cfg.c **** * Summary:
 139:.\Generated_Source\PSoC4/cyfitter_cfg.c **** *  This function is used for setting up the chip configuration areas that
 140:.\Generated_Source\PSoC4/cyfitter_cfg.c **** *  contain relatively sparse data.
 141:.\Generated_Source\PSoC4/cyfitter_cfg.c **** *
 142:.\Generated_Source\PSoC4/cyfitter_cfg.c **** * Parameters:
 143:.\Generated_Source\PSoC4/cyfitter_cfg.c **** *   void
 144:.\Generated_Source\PSoC4/cyfitter_cfg.c **** *
 145:.\Generated_Source\PSoC4/cyfitter_cfg.c **** * Return:
 146:.\Generated_Source\PSoC4/cyfitter_cfg.c **** *   void
 147:.\Generated_Source\PSoC4/cyfitter_cfg.c **** *
ARM GAS  C:\Users\jhorel\AppData\Local\Temp\ccC8x7vY.s 			page 4


 148:.\Generated_Source\PSoC4/cyfitter_cfg.c **** *******************************************************************************/
 149:.\Generated_Source\PSoC4/cyfitter_cfg.c **** static void cfg_write_bytes32(const uint32 addr_table[], const cy_cfg_addrvalue_t data_table[]);
 150:.\Generated_Source\PSoC4/cyfitter_cfg.c **** static void cfg_write_bytes32(const uint32 addr_table[], const cy_cfg_addrvalue_t data_table[])
 151:.\Generated_Source\PSoC4/cyfitter_cfg.c **** {
  25              		.loc 1 151 0
  26              		.cfi_startproc
  27              	.LVL0:
  28 0000 F0B5     		push	{r4, r5, r6, r7, lr}
  29              		.cfi_def_cfa_offset 20
  30              		.cfi_offset 4, -20
  31              		.cfi_offset 5, -16
  32              		.cfi_offset 6, -12
  33              		.cfi_offset 7, -8
  34              		.cfi_offset 14, -4
  35              	.LVL1:
 152:.\Generated_Source\PSoC4/cyfitter_cfg.c **** 	/* For 32-bit little-endian architectures */
 153:.\Generated_Source\PSoC4/cyfitter_cfg.c **** 	uint32 i, j = 0u;
  36              		.loc 1 153 0
  37 0002 0025     		mov	r5, #0
 154:.\Generated_Source\PSoC4/cyfitter_cfg.c **** 	for (i = 0u; i < CY_CFG_BASE_ADDR_COUNT; i++)
  38              		.loc 1 154 0
  39 0004 0027     		mov	r7, #0
  40 0006 11E0     		b	.L2
  41              	.LVL2:
  42              	.L5:
  43              	.LBB2:
 155:.\Generated_Source\PSoC4/cyfitter_cfg.c **** 	{
 156:.\Generated_Source\PSoC4/cyfitter_cfg.c **** 		uint32 baseAddr = addr_table[i];
  44              		.loc 1 156 0
  45 0008 BB00     		lsl	r3, r7, #2
  46 000a C658     		ldr	r6, [r0, r3]
  47              	.LVL3:
 157:.\Generated_Source\PSoC4/cyfitter_cfg.c **** 		uint8 count = (uint8)baseAddr;
  48              		.loc 1 157 0
  49 000c F3B2     		uxtb	r3, r6
  50              	.LVL4:
 158:.\Generated_Source\PSoC4/cyfitter_cfg.c **** 		baseAddr &= 0xFFFFFF00u;
  51              		.loc 1 158 0
  52 000e FF22     		mov	r2, #255
  53 0010 9643     		bic	r6, r2
  54              	.LVL5:
 159:.\Generated_Source\PSoC4/cyfitter_cfg.c **** 		while (count != 0u)
  55              		.loc 1 159 0
  56 0012 08E0     		b	.L3
  57              	.L4:
 160:.\Generated_Source\PSoC4/cyfitter_cfg.c **** 		{
 161:.\Generated_Source\PSoC4/cyfitter_cfg.c **** 			CY_SET_XTND_REG8((void CYFAR *)(baseAddr + data_table[j].offset), data_table[j].value);
  58              		.loc 1 161 0
  59 0014 6A00     		lsl	r2, r5, #1
  60 0016 8A18     		add	r2, r1, r2
  61 0018 1478     		ldrb	r4, [r2]
  62 001a A419     		add	r4, r4, r6
  63 001c 5278     		ldrb	r2, [r2, #1]
  64 001e 2270     		strb	r2, [r4]
 162:.\Generated_Source\PSoC4/cyfitter_cfg.c **** 			j++;
  65              		.loc 1 162 0
  66 0020 0135     		add	r5, r5, #1
ARM GAS  C:\Users\jhorel\AppData\Local\Temp\ccC8x7vY.s 			page 5


  67              	.LVL6:
 163:.\Generated_Source\PSoC4/cyfitter_cfg.c **** 			count--;
  68              		.loc 1 163 0
  69 0022 013B     		sub	r3, r3, #1
  70              	.LVL7:
  71 0024 DBB2     		uxtb	r3, r3
  72              	.LVL8:
  73              	.L3:
 159:.\Generated_Source\PSoC4/cyfitter_cfg.c **** 		{
  74              		.loc 1 159 0
  75 0026 002B     		cmp	r3, #0
  76 0028 F4D1     		bne	.L4
  77              	.LBE2:
 154:.\Generated_Source\PSoC4/cyfitter_cfg.c **** 	{
  78              		.loc 1 154 0 discriminator 2
  79 002a 0137     		add	r7, r7, #1
  80              	.LVL9:
  81              	.L2:
 154:.\Generated_Source\PSoC4/cyfitter_cfg.c **** 	{
  82              		.loc 1 154 0 is_stmt 0 discriminator 1
  83 002c 082F     		cmp	r7, #8
  84 002e EBD9     		bls	.L5
 164:.\Generated_Source\PSoC4/cyfitter_cfg.c **** 		}
 165:.\Generated_Source\PSoC4/cyfitter_cfg.c **** 	}
 166:.\Generated_Source\PSoC4/cyfitter_cfg.c **** }
  85              		.loc 1 166 0 is_stmt 1
  86              		@ sp needed
  87              	.LVL10:
  88              	.LVL11:
  89 0030 F0BD     		pop	{r4, r5, r6, r7, pc}
  90              		.cfi_endproc
  91              	.LFE5:
  92              		.size	cfg_write_bytes32, .-cfg_write_bytes32
  93 0032 C046     		.section	.text.AnalogSetDefault,"ax",%progbits
  94              		.align	2
  95              		.code	16
  96              		.thumb_func
  97              		.type	AnalogSetDefault, %function
  98              	AnalogSetDefault:
  99              	.LFB7:
 167:.\Generated_Source\PSoC4/cyfitter_cfg.c **** 
 168:.\Generated_Source\PSoC4/cyfitter_cfg.c **** 
 169:.\Generated_Source\PSoC4/cyfitter_cfg.c **** /*******************************************************************************
 170:.\Generated_Source\PSoC4/cyfitter_cfg.c **** * Function Name: ClockSetup
 171:.\Generated_Source\PSoC4/cyfitter_cfg.c **** ********************************************************************************
 172:.\Generated_Source\PSoC4/cyfitter_cfg.c **** *
 173:.\Generated_Source\PSoC4/cyfitter_cfg.c **** * Summary:
 174:.\Generated_Source\PSoC4/cyfitter_cfg.c **** *   Performs the initialization of all of the clocks in the device based on the
 175:.\Generated_Source\PSoC4/cyfitter_cfg.c **** *   settings in the Clock tab of the DWR.  This includes enabling the requested
 176:.\Generated_Source\PSoC4/cyfitter_cfg.c **** *   clocks and setting the necessary dividers to produce the desired frequency. 
 177:.\Generated_Source\PSoC4/cyfitter_cfg.c **** *
 178:.\Generated_Source\PSoC4/cyfitter_cfg.c **** * Parameters:
 179:.\Generated_Source\PSoC4/cyfitter_cfg.c **** *   void
 180:.\Generated_Source\PSoC4/cyfitter_cfg.c **** *
 181:.\Generated_Source\PSoC4/cyfitter_cfg.c **** * Return:
 182:.\Generated_Source\PSoC4/cyfitter_cfg.c **** *   void
 183:.\Generated_Source\PSoC4/cyfitter_cfg.c **** *
ARM GAS  C:\Users\jhorel\AppData\Local\Temp\ccC8x7vY.s 			page 6


 184:.\Generated_Source\PSoC4/cyfitter_cfg.c **** *******************************************************************************/
 185:.\Generated_Source\PSoC4/cyfitter_cfg.c **** static void ClockSetup(void);
 186:.\Generated_Source\PSoC4/cyfitter_cfg.c **** CY_CFG_SECTION
 187:.\Generated_Source\PSoC4/cyfitter_cfg.c **** static void ClockSetup(void)
 188:.\Generated_Source\PSoC4/cyfitter_cfg.c **** {
 189:.\Generated_Source\PSoC4/cyfitter_cfg.c **** 
 190:.\Generated_Source\PSoC4/cyfitter_cfg.c **** 	/* Set Flash Cycles based on max possible frequency in case a glitch occurs during ClockSetup(). *
 191:.\Generated_Source\PSoC4/cyfitter_cfg.c **** 	CY_SET_REG32((void CYXDATA *)(CYREG_CPUSS_FLASH_CTL), (0x0012u));
 192:.\Generated_Source\PSoC4/cyfitter_cfg.c **** 
 193:.\Generated_Source\PSoC4/cyfitter_cfg.c **** 	/* Start the WCO */
 194:.\Generated_Source\PSoC4/cyfitter_cfg.c **** 	CySysClkWcoStart();
 195:.\Generated_Source\PSoC4/cyfitter_cfg.c **** 	CyDelayCycles(12000000u); /* WCO may take up to 500ms to start */
 196:.\Generated_Source\PSoC4/cyfitter_cfg.c **** 	(void)CySysClkWcoSetPowerMode(CY_SYS_CLK_WCO_LPM);    /* Switch to the low power mode */
 197:.\Generated_Source\PSoC4/cyfitter_cfg.c **** 
 198:.\Generated_Source\PSoC4/cyfitter_cfg.c **** 	/* Setup and trim IMO based on desired frequency. */
 199:.\Generated_Source\PSoC4/cyfitter_cfg.c **** 	CySysClkWriteImoFreq(48u);
 200:.\Generated_Source\PSoC4/cyfitter_cfg.c **** 	/* CYDEV_CLK_ILO_CONFIG Starting address: CYDEV_CLK_ILO_CONFIG */
 201:.\Generated_Source\PSoC4/cyfitter_cfg.c **** 	CY_SET_XTND_REG32((void CYFAR *)(CYREG_CLK_ILO_CONFIG), 0x80000006u);
 202:.\Generated_Source\PSoC4/cyfitter_cfg.c **** 
 203:.\Generated_Source\PSoC4/cyfitter_cfg.c **** 	/* CYDEV_WDT_CONFIG Starting address: CYDEV_WDT_CONFIG */
 204:.\Generated_Source\PSoC4/cyfitter_cfg.c **** 	CY_SET_XTND_REG32((void CYFAR *)(CYREG_WDT_CONFIG), 0x40000000u);
 205:.\Generated_Source\PSoC4/cyfitter_cfg.c **** 
 206:.\Generated_Source\PSoC4/cyfitter_cfg.c **** 
 207:.\Generated_Source\PSoC4/cyfitter_cfg.c **** 	/* Enable fast start mode for XO */
 208:.\Generated_Source\PSoC4/cyfitter_cfg.c **** 	CY_SET_REG32((void*)CYREG_BLE_BLERD_BB_XO, CY_GET_REG32((void*)CYREG_BLE_BLERD_BB_XO) | (uint32)0x
 209:.\Generated_Source\PSoC4/cyfitter_cfg.c **** 	CY_SET_XTND_REG32((void CYFAR *)(CYREG_BLE_BLERD_BB_XO_CAPTRIM), 0x00003E2Du);
 210:.\Generated_Source\PSoC4/cyfitter_cfg.c **** 	/* Disable Crystal Stable Interrupt before enabling ECO */
 211:.\Generated_Source\PSoC4/cyfitter_cfg.c **** 	CY_SET_REG32((void*)CYREG_BLE_BLESS_LL_DSM_CTRL, CY_GET_REG32((void*)CYREG_BLE_BLESS_LL_DSM_CTRL) 
 212:.\Generated_Source\PSoC4/cyfitter_cfg.c **** 	/* Start the ECO and do not check status since it is not needed for HFCLK */
 213:.\Generated_Source\PSoC4/cyfitter_cfg.c **** 	(void)CySysClkEcoStart(2000u);
 214:.\Generated_Source\PSoC4/cyfitter_cfg.c **** 	CyDelayUs(1500u); /* Wait to stabalize */
 215:.\Generated_Source\PSoC4/cyfitter_cfg.c **** 
 216:.\Generated_Source\PSoC4/cyfitter_cfg.c **** 	/* Setup phase aligned clocks */
 217:.\Generated_Source\PSoC4/cyfitter_cfg.c **** 	CY_SET_REG32((void *)CYREG_PERI_DIV_16_CTL2, 0x00AFE300u);
 218:.\Generated_Source\PSoC4/cyfitter_cfg.c **** 	CY_SET_REG32((void *)CYREG_PERI_DIV_CMD, 0x8000FF42u);
 219:.\Generated_Source\PSoC4/cyfitter_cfg.c **** 	CY_SET_REG32((void *)CYREG_PERI_DIV_16_CTL1, 0x00095F00u);
 220:.\Generated_Source\PSoC4/cyfitter_cfg.c **** 	CY_SET_REG32((void *)CYREG_PERI_DIV_CMD, 0x8000FF41u);
 221:.\Generated_Source\PSoC4/cyfitter_cfg.c **** 	CY_SET_REG32((void *)CYREG_PERI_DIV_16_CTL0, 0x00001D00u);
 222:.\Generated_Source\PSoC4/cyfitter_cfg.c **** 	CY_SET_REG32((void *)CYREG_PERI_DIV_CMD, 0x8000FF40u);
 223:.\Generated_Source\PSoC4/cyfitter_cfg.c **** 
 224:.\Generated_Source\PSoC4/cyfitter_cfg.c **** 	/* CYDEV_CLK_IMO_CONFIG Starting address: CYDEV_CLK_IMO_CONFIG */
 225:.\Generated_Source\PSoC4/cyfitter_cfg.c **** 	CY_SET_XTND_REG32((void CYFAR *)(CYREG_CLK_IMO_CONFIG), 0x80000000u);
 226:.\Generated_Source\PSoC4/cyfitter_cfg.c **** 
 227:.\Generated_Source\PSoC4/cyfitter_cfg.c **** 	/* CYDEV_CLK_SELECT Starting address: CYDEV_CLK_SELECT */
 228:.\Generated_Source\PSoC4/cyfitter_cfg.c **** 	CY_SET_XTND_REG32((void CYFAR *)(CYREG_CLK_SELECT), 0x00040000u);
 229:.\Generated_Source\PSoC4/cyfitter_cfg.c **** 
 230:.\Generated_Source\PSoC4/cyfitter_cfg.c **** 	/* CYDEV_PERI_PCLK_CTL11 Starting address: CYDEV_PERI_PCLK_CTL11 */
 231:.\Generated_Source\PSoC4/cyfitter_cfg.c **** 	CY_SET_XTND_REG32((void CYFAR *)(CYREG_PERI_PCLK_CTL11), 0x00000042u);
 232:.\Generated_Source\PSoC4/cyfitter_cfg.c **** 
 233:.\Generated_Source\PSoC4/cyfitter_cfg.c **** 	/* CYDEV_PERI_PCLK_CTL10 Starting address: CYDEV_PERI_PCLK_CTL10 */
 234:.\Generated_Source\PSoC4/cyfitter_cfg.c **** 	CY_SET_XTND_REG32((void CYFAR *)(CYREG_PERI_PCLK_CTL10), 0x00000041u);
 235:.\Generated_Source\PSoC4/cyfitter_cfg.c **** 
 236:.\Generated_Source\PSoC4/cyfitter_cfg.c **** 	/* CYDEV_PERI_PCLK_CTL9 Starting address: CYDEV_PERI_PCLK_CTL9 */
 237:.\Generated_Source\PSoC4/cyfitter_cfg.c **** 	CY_SET_XTND_REG32((void CYFAR *)(CYREG_PERI_PCLK_CTL9), 0x00000041u);
 238:.\Generated_Source\PSoC4/cyfitter_cfg.c **** 
 239:.\Generated_Source\PSoC4/cyfitter_cfg.c **** 	/* CYDEV_PERI_PCLK_CTL8 Starting address: CYDEV_PERI_PCLK_CTL8 */
 240:.\Generated_Source\PSoC4/cyfitter_cfg.c **** 	CY_SET_XTND_REG32((void CYFAR *)(CYREG_PERI_PCLK_CTL8), 0x00000041u);
ARM GAS  C:\Users\jhorel\AppData\Local\Temp\ccC8x7vY.s 			page 7


 241:.\Generated_Source\PSoC4/cyfitter_cfg.c **** 
 242:.\Generated_Source\PSoC4/cyfitter_cfg.c **** 	/* CYDEV_PERI_PCLK_CTL7 Starting address: CYDEV_PERI_PCLK_CTL7 */
 243:.\Generated_Source\PSoC4/cyfitter_cfg.c **** 	CY_SET_XTND_REG32((void CYFAR *)(CYREG_PERI_PCLK_CTL7), 0x00000041u);
 244:.\Generated_Source\PSoC4/cyfitter_cfg.c **** 
 245:.\Generated_Source\PSoC4/cyfitter_cfg.c **** 	/* CYDEV_PERI_PCLK_CTL1 Starting address: CYDEV_PERI_PCLK_CTL1 */
 246:.\Generated_Source\PSoC4/cyfitter_cfg.c **** 	CY_SET_XTND_REG32((void CYFAR *)(CYREG_PERI_PCLK_CTL1), 0x00000040u);
 247:.\Generated_Source\PSoC4/cyfitter_cfg.c **** 
 248:.\Generated_Source\PSoC4/cyfitter_cfg.c **** 	(void)CyIntSetVector(8u, &CySysWdtIsr);
 249:.\Generated_Source\PSoC4/cyfitter_cfg.c **** 	CyIntEnable(8u);
 250:.\Generated_Source\PSoC4/cyfitter_cfg.c **** 	CY_SET_XTND_REG32((void CYFAR *)(CYREG_WDT_CONFIG), 0x40000000u);
 251:.\Generated_Source\PSoC4/cyfitter_cfg.c **** }
 252:.\Generated_Source\PSoC4/cyfitter_cfg.c **** 
 253:.\Generated_Source\PSoC4/cyfitter_cfg.c **** 
 254:.\Generated_Source\PSoC4/cyfitter_cfg.c **** /* Analog API Functions */
 255:.\Generated_Source\PSoC4/cyfitter_cfg.c **** 
 256:.\Generated_Source\PSoC4/cyfitter_cfg.c **** 
 257:.\Generated_Source\PSoC4/cyfitter_cfg.c **** /*******************************************************************************
 258:.\Generated_Source\PSoC4/cyfitter_cfg.c **** * Function Name: AnalogSetDefault
 259:.\Generated_Source\PSoC4/cyfitter_cfg.c **** ********************************************************************************
 260:.\Generated_Source\PSoC4/cyfitter_cfg.c **** *
 261:.\Generated_Source\PSoC4/cyfitter_cfg.c **** * Summary:
 262:.\Generated_Source\PSoC4/cyfitter_cfg.c **** *  Sets up the analog portions of the chip to default values based on chip
 263:.\Generated_Source\PSoC4/cyfitter_cfg.c **** *  configuration options from the project.
 264:.\Generated_Source\PSoC4/cyfitter_cfg.c **** *
 265:.\Generated_Source\PSoC4/cyfitter_cfg.c **** * Parameters:
 266:.\Generated_Source\PSoC4/cyfitter_cfg.c **** *  void
 267:.\Generated_Source\PSoC4/cyfitter_cfg.c **** *
 268:.\Generated_Source\PSoC4/cyfitter_cfg.c **** * Return:
 269:.\Generated_Source\PSoC4/cyfitter_cfg.c **** *  void
 270:.\Generated_Source\PSoC4/cyfitter_cfg.c **** *
 271:.\Generated_Source\PSoC4/cyfitter_cfg.c **** *******************************************************************************/
 272:.\Generated_Source\PSoC4/cyfitter_cfg.c **** static void AnalogSetDefault(void);
 273:.\Generated_Source\PSoC4/cyfitter_cfg.c **** static void AnalogSetDefault(void)
 274:.\Generated_Source\PSoC4/cyfitter_cfg.c **** {
 100              		.loc 1 274 0
 101              		.cfi_startproc
 275:.\Generated_Source\PSoC4/cyfitter_cfg.c **** 	CY_SET_XTND_REG32((void CYFAR *)CYREG_CTBM0_DFT_CTRL, 0x00000003u);
 102              		.loc 1 275 0
 103 0000 0323     		mov	r3, #3
 104 0002 044A     		ldr	r2, .L7
 105 0004 1360     		str	r3, [r2]
 276:.\Generated_Source\PSoC4/cyfitter_cfg.c **** 	CY_SET_XTND_REG32((void CYFAR *)CYREG_CTBM1_DFT_CTRL, 0x00000003u);
 106              		.loc 1 276 0
 107 0006 044A     		ldr	r2, .L7+4
 108 0008 1360     		str	r3, [r2]
 277:.\Generated_Source\PSoC4/cyfitter_cfg.c **** 	CY_SET_XTND_REG32((void CYFAR *)CYREG_PASS_DSAB_DSAB_CTRL, 0x00000000u);
 109              		.loc 1 277 0
 110 000a 0022     		mov	r2, #0
 111 000c 034B     		ldr	r3, .L7+8
 112 000e 1A60     		str	r2, [r3]
 278:.\Generated_Source\PSoC4/cyfitter_cfg.c **** }
 113              		.loc 1 278 0
 114              		@ sp needed
 115 0010 7047     		bx	lr
 116              	.L8:
 117 0012 C046     		.align	2
 118              	.L7:
ARM GAS  C:\Users\jhorel\AppData\Local\Temp\ccC8x7vY.s 			page 8


 119 0014 30003040 		.word	1076887600
 120 0018 30003140 		.word	1076953136
 121 001c 000E3F40 		.word	1077874176
 122              		.cfi_endproc
 123              	.LFE7:
 124              		.size	AnalogSetDefault, .-AnalogSetDefault
 125              		.section	.text.CYMEMZERO,"ax",%progbits
 126              		.align	2
 127              		.code	16
 128              		.thumb_func
 129              		.type	CYMEMZERO, %function
 130              	CYMEMZERO:
 131              	.LFB2:
  62:.\Generated_Source\PSoC4/cyfitter_cfg.c **** 	(void)memset(s, 0, n);
 132              		.loc 1 62 0
 133              		.cfi_startproc
 134              	.LVL12:
 135 0000 08B5     		push	{r3, lr}
 136              		.cfi_def_cfa_offset 8
 137              		.cfi_offset 3, -8
 138              		.cfi_offset 14, -4
 139 0002 0A1C     		mov	r2, r1
  63:.\Generated_Source\PSoC4/cyfitter_cfg.c **** }
 140              		.loc 1 63 0
 141 0004 0021     		mov	r1, #0
 142              	.LVL13:
 143 0006 FFF7FEFF 		bl	memset
 144              	.LVL14:
  64:.\Generated_Source\PSoC4/cyfitter_cfg.c **** CY_CFG_UNUSED
 145              		.loc 1 64 0
 146              		@ sp needed
 147 000a 08BD     		pop	{r3, pc}
 148              		.cfi_endproc
 149              	.LFE2:
 150              		.size	CYMEMZERO, .-CYMEMZERO
 151              		.section	.psocinit,"ax",%progbits
 152              		.align	2
 153              		.code	16
 154              		.thumb_func
 155              		.type	ClockSetup, %function
 156              	ClockSetup:
 157              	.LFB6:
 188:.\Generated_Source\PSoC4/cyfitter_cfg.c **** 
 158              		.loc 1 188 0
 159              		.cfi_startproc
 160 0000 38B5     		push	{r3, r4, r5, lr}
 161              		.cfi_def_cfa_offset 16
 162              		.cfi_offset 3, -16
 163              		.cfi_offset 4, -12
 164              		.cfi_offset 5, -8
 165              		.cfi_offset 14, -4
 191:.\Generated_Source\PSoC4/cyfitter_cfg.c **** 
 166              		.loc 1 191 0
 167 0002 1222     		mov	r2, #18
 168 0004 2C4B     		ldr	r3, .L11
 169 0006 1A60     		str	r2, [r3]
 194:.\Generated_Source\PSoC4/cyfitter_cfg.c **** 	CyDelayCycles(12000000u); /* WCO may take up to 500ms to start */
ARM GAS  C:\Users\jhorel\AppData\Local\Temp\ccC8x7vY.s 			page 9


 170              		.loc 1 194 0
 171 0008 FFF7FEFF 		bl	CySysClkWcoStart
 172              	.LVL15:
 195:.\Generated_Source\PSoC4/cyfitter_cfg.c **** 	(void)CySysClkWcoSetPowerMode(CY_SYS_CLK_WCO_LPM);    /* Switch to the low power mode */
 173              		.loc 1 195 0
 174 000c 2B48     		ldr	r0, .L11+4
 175 000e FFF7FEFF 		bl	CyDelayCycles
 176              	.LVL16:
 196:.\Generated_Source\PSoC4/cyfitter_cfg.c **** 
 177              		.loc 1 196 0
 178 0012 0120     		mov	r0, #1
 179 0014 FFF7FEFF 		bl	CySysClkWcoSetPowerMode
 180              	.LVL17:
 199:.\Generated_Source\PSoC4/cyfitter_cfg.c **** 	/* CYDEV_CLK_ILO_CONFIG Starting address: CYDEV_CLK_ILO_CONFIG */
 181              		.loc 1 199 0
 182 0018 3020     		mov	r0, #48
 183 001a FFF7FEFF 		bl	CySysClkWriteImoFreq
 184              	.LVL18:
 201:.\Generated_Source\PSoC4/cyfitter_cfg.c **** 
 185              		.loc 1 201 0
 186 001e 284A     		ldr	r2, .L11+8
 187 0020 284B     		ldr	r3, .L11+12
 188 0022 1A60     		str	r2, [r3]
 204:.\Generated_Source\PSoC4/cyfitter_cfg.c **** 
 189              		.loc 1 204 0
 190 0024 284C     		ldr	r4, .L11+16
 191 0026 8025     		mov	r5, #128
 192 0028 ED05     		lsl	r5, r5, #23
 193 002a 2560     		str	r5, [r4]
 208:.\Generated_Source\PSoC4/cyfitter_cfg.c **** 	CY_SET_XTND_REG32((void CYFAR *)(CYREG_BLE_BLERD_BB_XO_CAPTRIM), 0x00003E2Du);
 194              		.loc 1 208 0
 195 002c 274A     		ldr	r2, .L11+20
 196 002e 1168     		ldr	r1, [r2]
 197 0030 0223     		mov	r3, #2
 198 0032 0B43     		orr	r3, r1
 199 0034 1360     		str	r3, [r2]
 209:.\Generated_Source\PSoC4/cyfitter_cfg.c **** 	/* Disable Crystal Stable Interrupt before enabling ECO */
 200              		.loc 1 209 0
 201 0036 264A     		ldr	r2, .L11+24
 202 0038 264B     		ldr	r3, .L11+28
 203 003a 1A60     		str	r2, [r3]
 211:.\Generated_Source\PSoC4/cyfitter_cfg.c **** 	/* Start the ECO and do not check status since it is not needed for HFCLK */
 204              		.loc 1 211 0
 205 003c 264A     		ldr	r2, .L11+32
 206 003e 1368     		ldr	r3, [r2]
 207 0040 0821     		mov	r1, #8
 208 0042 8B43     		bic	r3, r1
 209 0044 1360     		str	r3, [r2]
 213:.\Generated_Source\PSoC4/cyfitter_cfg.c **** 	CyDelayUs(1500u); /* Wait to stabalize */
 210              		.loc 1 213 0
 211 0046 FA20     		mov	r0, #250
 212 0048 C000     		lsl	r0, r0, #3
 213 004a FFF7FEFF 		bl	CySysClkEcoStart
 214              	.LVL19:
 214:.\Generated_Source\PSoC4/cyfitter_cfg.c **** 
 215              		.loc 1 214 0
 216 004e 2348     		ldr	r0, .L11+36
ARM GAS  C:\Users\jhorel\AppData\Local\Temp\ccC8x7vY.s 			page 10


 217 0050 FFF7FEFF 		bl	CyDelayUs
 218              	.LVL20:
 217:.\Generated_Source\PSoC4/cyfitter_cfg.c **** 	CY_SET_REG32((void *)CYREG_PERI_DIV_CMD, 0x8000FF42u);
 219              		.loc 1 217 0
 220 0054 224A     		ldr	r2, .L11+40
 221 0056 234B     		ldr	r3, .L11+44
 222 0058 1A60     		str	r2, [r3]
 218:.\Generated_Source\PSoC4/cyfitter_cfg.c **** 	CY_SET_REG32((void *)CYREG_PERI_DIV_16_CTL1, 0x00095F00u);
 223              		.loc 1 218 0
 224 005a 234B     		ldr	r3, .L11+48
 225 005c 234A     		ldr	r2, .L11+52
 226 005e 1A60     		str	r2, [r3]
 219:.\Generated_Source\PSoC4/cyfitter_cfg.c **** 	CY_SET_REG32((void *)CYREG_PERI_DIV_CMD, 0x8000FF41u);
 227              		.loc 1 219 0
 228 0060 2349     		ldr	r1, .L11+56
 229 0062 244A     		ldr	r2, .L11+60
 230 0064 1160     		str	r1, [r2]
 220:.\Generated_Source\PSoC4/cyfitter_cfg.c **** 	CY_SET_REG32((void *)CYREG_PERI_DIV_16_CTL0, 0x00001D00u);
 231              		.loc 1 220 0
 232 0066 244A     		ldr	r2, .L11+64
 233 0068 1A60     		str	r2, [r3]
 221:.\Generated_Source\PSoC4/cyfitter_cfg.c **** 	CY_SET_REG32((void *)CYREG_PERI_DIV_CMD, 0x8000FF40u);
 234              		.loc 1 221 0
 235 006a E821     		mov	r1, #232
 236 006c 4901     		lsl	r1, r1, #5
 237 006e 234A     		ldr	r2, .L11+68
 238 0070 1160     		str	r1, [r2]
 222:.\Generated_Source\PSoC4/cyfitter_cfg.c **** 
 239              		.loc 1 222 0
 240 0072 234A     		ldr	r2, .L11+72
 241 0074 1A60     		str	r2, [r3]
 225:.\Generated_Source\PSoC4/cyfitter_cfg.c **** 
 242              		.loc 1 225 0
 243 0076 8022     		mov	r2, #128
 244 0078 1206     		lsl	r2, r2, #24
 245 007a 224B     		ldr	r3, .L11+76
 246 007c 1A60     		str	r2, [r3]
 228:.\Generated_Source\PSoC4/cyfitter_cfg.c **** 
 247              		.loc 1 228 0
 248 007e 8022     		mov	r2, #128
 249 0080 D202     		lsl	r2, r2, #11
 250 0082 214B     		ldr	r3, .L11+80
 251 0084 1A60     		str	r2, [r3]
 231:.\Generated_Source\PSoC4/cyfitter_cfg.c **** 
 252              		.loc 1 231 0
 253 0086 4222     		mov	r2, #66
 254 0088 204B     		ldr	r3, .L11+84
 255 008a 1A60     		str	r2, [r3]
 234:.\Generated_Source\PSoC4/cyfitter_cfg.c **** 
 256              		.loc 1 234 0
 257 008c 4123     		mov	r3, #65
 258 008e 204A     		ldr	r2, .L11+88
 259 0090 1360     		str	r3, [r2]
 237:.\Generated_Source\PSoC4/cyfitter_cfg.c **** 
 260              		.loc 1 237 0
 261 0092 204A     		ldr	r2, .L11+92
 262 0094 1360     		str	r3, [r2]
ARM GAS  C:\Users\jhorel\AppData\Local\Temp\ccC8x7vY.s 			page 11


 240:.\Generated_Source\PSoC4/cyfitter_cfg.c **** 
 263              		.loc 1 240 0
 264 0096 204A     		ldr	r2, .L11+96
 265 0098 1360     		str	r3, [r2]
 243:.\Generated_Source\PSoC4/cyfitter_cfg.c **** 
 266              		.loc 1 243 0
 267 009a 204A     		ldr	r2, .L11+100
 268 009c 1360     		str	r3, [r2]
 246:.\Generated_Source\PSoC4/cyfitter_cfg.c **** 
 269              		.loc 1 246 0
 270 009e 4022     		mov	r2, #64
 271 00a0 1F4B     		ldr	r3, .L11+104
 272 00a2 1A60     		str	r2, [r3]
 248:.\Generated_Source\PSoC4/cyfitter_cfg.c **** 	CyIntEnable(8u);
 273              		.loc 1 248 0
 274 00a4 0820     		mov	r0, #8
 275 00a6 1F49     		ldr	r1, .L11+108
 276 00a8 FFF7FEFF 		bl	CyIntSetVector
 277              	.LVL21:
 249:.\Generated_Source\PSoC4/cyfitter_cfg.c **** 	CY_SET_XTND_REG32((void CYFAR *)(CYREG_WDT_CONFIG), 0x40000000u);
 278              		.loc 1 249 0
 279 00ac 0820     		mov	r0, #8
 280 00ae FFF7FEFF 		bl	CyIntEnable
 281              	.LVL22:
 250:.\Generated_Source\PSoC4/cyfitter_cfg.c **** }
 282              		.loc 1 250 0
 283 00b2 2560     		str	r5, [r4]
 251:.\Generated_Source\PSoC4/cyfitter_cfg.c **** 
 284              		.loc 1 251 0
 285              		@ sp needed
 286 00b4 38BD     		pop	{r3, r4, r5, pc}
 287              	.L12:
 288 00b6 C046     		.align	2
 289              	.L11:
 290 00b8 30001040 		.word	1074790448
 291 00bc 001BB700 		.word	12000000
 292 00c0 06000080 		.word	-2147483642
 293 00c4 04010B40 		.word	1074462980
 294 00c8 0C020B40 		.word	1074463244
 295 00cc 78002E40 		.word	1076756600
 296 00d0 2D3E0000 		.word	15917
 297 00d4 7C002E40 		.word	1076756604
 298 00d8 6CF02E40 		.word	1076818028
 299 00dc DC050000 		.word	1500
 300 00e0 00E3AF00 		.word	11526912
 301 00e4 08030140 		.word	1073808136
 302 00e8 00000140 		.word	1073807360
 303 00ec 42FF0080 		.word	-2147418302
 304 00f0 005F0900 		.word	614144
 305 00f4 04030140 		.word	1073808132
 306 00f8 41FF0080 		.word	-2147418303
 307 00fc 00030140 		.word	1073808128
 308 0100 40FF0080 		.word	-2147418304
 309 0104 08010B40 		.word	1074462984
 310 0108 00010B40 		.word	1074462976
 311 010c 2C010140 		.word	1073807660
 312 0110 28010140 		.word	1073807656
ARM GAS  C:\Users\jhorel\AppData\Local\Temp\ccC8x7vY.s 			page 12


 313 0114 24010140 		.word	1073807652
 314 0118 20010140 		.word	1073807648
 315 011c 1C010140 		.word	1073807644
 316 0120 04010140 		.word	1073807620
 317 0124 00000000 		.word	CySysWdtIsr
 318              		.cfi_endproc
 319              	.LFE6:
 320              		.size	ClockSetup, .-ClockSetup
 321              		.align	2
 322              		.global	cyfitter_cfg
 323              		.code	16
 324              		.thumb_func
 325              		.type	cyfitter_cfg, %function
 326              	cyfitter_cfg:
 327              	.LFB8:
 279:.\Generated_Source\PSoC4/cyfitter_cfg.c **** 
 280:.\Generated_Source\PSoC4/cyfitter_cfg.c **** #define CY_AMUX_UNUSED CYREG_CM0_ROM_DWT
 281:.\Generated_Source\PSoC4/cyfitter_cfg.c **** 
 282:.\Generated_Source\PSoC4/cyfitter_cfg.c **** 
 283:.\Generated_Source\PSoC4/cyfitter_cfg.c **** /*******************************************************************************
 284:.\Generated_Source\PSoC4/cyfitter_cfg.c **** * Function Name: cyfitter_cfg
 285:.\Generated_Source\PSoC4/cyfitter_cfg.c **** ********************************************************************************
 286:.\Generated_Source\PSoC4/cyfitter_cfg.c **** * Summary:
 287:.\Generated_Source\PSoC4/cyfitter_cfg.c **** *  This function is called by the start-up code for the selected device. It
 288:.\Generated_Source\PSoC4/cyfitter_cfg.c **** *  performs all of the necessary device configuration based on the design
 289:.\Generated_Source\PSoC4/cyfitter_cfg.c **** *  settings.  This includes settings from the Design Wide Resources (DWR) such
 290:.\Generated_Source\PSoC4/cyfitter_cfg.c **** *  as Clocks and Pins as well as any component configuration that is necessary.
 291:.\Generated_Source\PSoC4/cyfitter_cfg.c **** *
 292:.\Generated_Source\PSoC4/cyfitter_cfg.c **** * Parameters:  
 293:.\Generated_Source\PSoC4/cyfitter_cfg.c **** *   void
 294:.\Generated_Source\PSoC4/cyfitter_cfg.c **** *
 295:.\Generated_Source\PSoC4/cyfitter_cfg.c **** * Return:
 296:.\Generated_Source\PSoC4/cyfitter_cfg.c **** *   void
 297:.\Generated_Source\PSoC4/cyfitter_cfg.c **** *
 298:.\Generated_Source\PSoC4/cyfitter_cfg.c **** *******************************************************************************/
 299:.\Generated_Source\PSoC4/cyfitter_cfg.c **** CY_CFG_SECTION
 300:.\Generated_Source\PSoC4/cyfitter_cfg.c **** void cyfitter_cfg(void)
 301:.\Generated_Source\PSoC4/cyfitter_cfg.c **** {
 328              		.loc 1 301 0
 329              		.cfi_startproc
 330 0128 10B5     		push	{r4, lr}
 331              		.cfi_def_cfa_offset 8
 332              		.cfi_offset 4, -8
 333              		.cfi_offset 14, -4
 302:.\Generated_Source\PSoC4/cyfitter_cfg.c **** 	/* Disable interrupts by default. Let user enable if/when they want. */
 303:.\Generated_Source\PSoC4/cyfitter_cfg.c **** 	CyGlobalIntDisable;
 334              		.loc 1 303 0
 335              	@ 303 ".\Generated_Source\PSoC4\cyfitter_cfg.c" 1
 336 012a 72B6     		CPSID   i
 337              	@ 0 "" 2
 304:.\Generated_Source\PSoC4/cyfitter_cfg.c **** 
 305:.\Generated_Source\PSoC4/cyfitter_cfg.c **** 	CY_SET_XTND_REG32((void CYFAR *)(CYREG_BLE_BLESS_LL_DSM_CTRL), 0x00000000u);
 338              		.loc 1 305 0
 339              		.code	16
 340 012c 0022     		mov	r2, #0
 341 012e 414B     		ldr	r3, .L16
 342 0130 1A60     		str	r2, [r3]
ARM GAS  C:\Users\jhorel\AppData\Local\Temp\ccC8x7vY.s 			page 13


 306:.\Generated_Source\PSoC4/cyfitter_cfg.c **** 
 307:.\Generated_Source\PSoC4/cyfitter_cfg.c **** 	/* Enable the clock in the interrupt controller for the routed interrupts */
 308:.\Generated_Source\PSoC4/cyfitter_cfg.c **** 	CY_SET_REG8((void *)CYREG_UDB_UDBIF_INT_CLK_CTL, 0x01u);
 343              		.loc 1 308 0
 344 0132 0132     		add	r2, r2, #1
 345 0134 404B     		ldr	r3, .L16+4
 346 0136 1A70     		strb	r2, [r3]
 347              	.LVL23:
 348              	.LBB3:
 309:.\Generated_Source\PSoC4/cyfitter_cfg.c **** 	{
 310:.\Generated_Source\PSoC4/cyfitter_cfg.c **** 		static const uint32 CYCODE cy_cfg_addr_table[] = {
 311:.\Generated_Source\PSoC4/cyfitter_cfg.c **** 			0x400F0001u, /* Base address: 0x400F0000 Count: 1 */
 312:.\Generated_Source\PSoC4/cyfitter_cfg.c **** 			0x400F3025u, /* Base address: 0x400F3000 Count: 37 */
 313:.\Generated_Source\PSoC4/cyfitter_cfg.c **** 			0x400F3119u, /* Base address: 0x400F3100 Count: 25 */
 314:.\Generated_Source\PSoC4/cyfitter_cfg.c **** 			0x400F3301u, /* Base address: 0x400F3300 Count: 1 */
 315:.\Generated_Source\PSoC4/cyfitter_cfg.c **** 			0x400F4002u, /* Base address: 0x400F4000 Count: 2 */
 316:.\Generated_Source\PSoC4/cyfitter_cfg.c **** 			0x400F4109u, /* Base address: 0x400F4100 Count: 9 */
 317:.\Generated_Source\PSoC4/cyfitter_cfg.c **** 			0x400F4207u, /* Base address: 0x400F4200 Count: 7 */
 318:.\Generated_Source\PSoC4/cyfitter_cfg.c **** 			0x400F430Au, /* Base address: 0x400F4300 Count: 10 */
 319:.\Generated_Source\PSoC4/cyfitter_cfg.c **** 			0x400F6002u, /* Base address: 0x400F6000 Count: 2 */
 320:.\Generated_Source\PSoC4/cyfitter_cfg.c **** 		};
 321:.\Generated_Source\PSoC4/cyfitter_cfg.c **** 
 322:.\Generated_Source\PSoC4/cyfitter_cfg.c **** 		static const cy_cfg_addrvalue_t CYCODE cy_cfg_data_table[] = {
 323:.\Generated_Source\PSoC4/cyfitter_cfg.c **** 			{0x80u, 0x0Du},
 324:.\Generated_Source\PSoC4/cyfitter_cfg.c **** 			{0x0Cu, 0x04u},
 325:.\Generated_Source\PSoC4/cyfitter_cfg.c **** 			{0x12u, 0x01u},
 326:.\Generated_Source\PSoC4/cyfitter_cfg.c **** 			{0x16u, 0x01u},
 327:.\Generated_Source\PSoC4/cyfitter_cfg.c **** 			{0x26u, 0x0Cu},
 328:.\Generated_Source\PSoC4/cyfitter_cfg.c **** 			{0x2Eu, 0x02u},
 329:.\Generated_Source\PSoC4/cyfitter_cfg.c **** 			{0x30u, 0x08u},
 330:.\Generated_Source\PSoC4/cyfitter_cfg.c **** 			{0x32u, 0x02u},
 331:.\Generated_Source\PSoC4/cyfitter_cfg.c **** 			{0x34u, 0x01u},
 332:.\Generated_Source\PSoC4/cyfitter_cfg.c **** 			{0x36u, 0x04u},
 333:.\Generated_Source\PSoC4/cyfitter_cfg.c **** 			{0x3Eu, 0x10u},
 334:.\Generated_Source\PSoC4/cyfitter_cfg.c **** 			{0x40u, 0x30u},
 335:.\Generated_Source\PSoC4/cyfitter_cfg.c **** 			{0x41u, 0x05u},
 336:.\Generated_Source\PSoC4/cyfitter_cfg.c **** 			{0x45u, 0xD1u},
 337:.\Generated_Source\PSoC4/cyfitter_cfg.c **** 			{0x47u, 0x20u},
 338:.\Generated_Source\PSoC4/cyfitter_cfg.c **** 			{0x48u, 0x23u},
 339:.\Generated_Source\PSoC4/cyfitter_cfg.c **** 			{0x49u, 0xFFu},
 340:.\Generated_Source\PSoC4/cyfitter_cfg.c **** 			{0x4Au, 0xFFu},
 341:.\Generated_Source\PSoC4/cyfitter_cfg.c **** 			{0x4Bu, 0xFFu},
 342:.\Generated_Source\PSoC4/cyfitter_cfg.c **** 			{0x4Du, 0xA0u},
 343:.\Generated_Source\PSoC4/cyfitter_cfg.c **** 			{0x4Fu, 0x04u},
 344:.\Generated_Source\PSoC4/cyfitter_cfg.c **** 			{0x50u, 0x18u},
 345:.\Generated_Source\PSoC4/cyfitter_cfg.c **** 			{0x52u, 0x80u},
 346:.\Generated_Source\PSoC4/cyfitter_cfg.c **** 			{0x54u, 0x05u},
 347:.\Generated_Source\PSoC4/cyfitter_cfg.c **** 			{0x56u, 0x04u},
 348:.\Generated_Source\PSoC4/cyfitter_cfg.c **** 			{0x58u, 0x04u},
 349:.\Generated_Source\PSoC4/cyfitter_cfg.c **** 			{0x5Au, 0x04u},
 350:.\Generated_Source\PSoC4/cyfitter_cfg.c **** 			{0x5Bu, 0x04u},
 351:.\Generated_Source\PSoC4/cyfitter_cfg.c **** 			{0x5Fu, 0x01u},
 352:.\Generated_Source\PSoC4/cyfitter_cfg.c **** 			{0x60u, 0x40u},
 353:.\Generated_Source\PSoC4/cyfitter_cfg.c **** 			{0x62u, 0xC0u},
 354:.\Generated_Source\PSoC4/cyfitter_cfg.c **** 			{0x64u, 0x40u},
 355:.\Generated_Source\PSoC4/cyfitter_cfg.c **** 			{0x65u, 0x40u},
 356:.\Generated_Source\PSoC4/cyfitter_cfg.c **** 			{0x66u, 0xC0u},
ARM GAS  C:\Users\jhorel\AppData\Local\Temp\ccC8x7vY.s 			page 14


 357:.\Generated_Source\PSoC4/cyfitter_cfg.c **** 			{0x68u, 0xC0u},
 358:.\Generated_Source\PSoC4/cyfitter_cfg.c **** 			{0x6Au, 0xC0u},
 359:.\Generated_Source\PSoC4/cyfitter_cfg.c **** 			{0x6Cu, 0xC0u},
 360:.\Generated_Source\PSoC4/cyfitter_cfg.c **** 			{0x6Eu, 0xC0u},
 361:.\Generated_Source\PSoC4/cyfitter_cfg.c **** 			{0x00u, 0x40u},
 362:.\Generated_Source\PSoC4/cyfitter_cfg.c **** 			{0x09u, 0x02u},
 363:.\Generated_Source\PSoC4/cyfitter_cfg.c **** 			{0x0Au, 0x10u},
 364:.\Generated_Source\PSoC4/cyfitter_cfg.c **** 			{0x10u, 0x20u},
 365:.\Generated_Source\PSoC4/cyfitter_cfg.c **** 			{0x13u, 0x80u},
 366:.\Generated_Source\PSoC4/cyfitter_cfg.c **** 			{0x18u, 0x40u},
 367:.\Generated_Source\PSoC4/cyfitter_cfg.c **** 			{0x19u, 0x40u},
 368:.\Generated_Source\PSoC4/cyfitter_cfg.c **** 			{0x1Au, 0x14u},
 369:.\Generated_Source\PSoC4/cyfitter_cfg.c **** 			{0x42u, 0x10u},
 370:.\Generated_Source\PSoC4/cyfitter_cfg.c **** 			{0x48u, 0x22u},
 371:.\Generated_Source\PSoC4/cyfitter_cfg.c **** 			{0x49u, 0x01u},
 372:.\Generated_Source\PSoC4/cyfitter_cfg.c **** 			{0x50u, 0x02u},
 373:.\Generated_Source\PSoC4/cyfitter_cfg.c **** 			{0x51u, 0x02u},
 374:.\Generated_Source\PSoC4/cyfitter_cfg.c **** 			{0x59u, 0x41u},
 375:.\Generated_Source\PSoC4/cyfitter_cfg.c **** 			{0x5Au, 0x04u},
 376:.\Generated_Source\PSoC4/cyfitter_cfg.c **** 			{0x63u, 0x40u},
 377:.\Generated_Source\PSoC4/cyfitter_cfg.c **** 			{0x73u, 0x80u},
 378:.\Generated_Source\PSoC4/cyfitter_cfg.c **** 			{0x87u, 0x40u},
 379:.\Generated_Source\PSoC4/cyfitter_cfg.c **** 			{0xC0u, 0x01u},
 380:.\Generated_Source\PSoC4/cyfitter_cfg.c **** 			{0xC2u, 0x0Cu},
 381:.\Generated_Source\PSoC4/cyfitter_cfg.c **** 			{0xC4u, 0x05u},
 382:.\Generated_Source\PSoC4/cyfitter_cfg.c **** 			{0xD0u, 0x02u},
 383:.\Generated_Source\PSoC4/cyfitter_cfg.c **** 			{0xD2u, 0x08u},
 384:.\Generated_Source\PSoC4/cyfitter_cfg.c **** 			{0xD6u, 0x0Bu},
 385:.\Generated_Source\PSoC4/cyfitter_cfg.c **** 			{0xD8u, 0x01u},
 386:.\Generated_Source\PSoC4/cyfitter_cfg.c **** 			{0xE4u, 0x22u},
 387:.\Generated_Source\PSoC4/cyfitter_cfg.c **** 			{0x87u, 0x02u},
 388:.\Generated_Source\PSoC4/cyfitter_cfg.c **** 			{0xE6u, 0x40u},
 389:.\Generated_Source\PSoC4/cyfitter_cfg.c **** 			{0x0Au, 0x04u},
 390:.\Generated_Source\PSoC4/cyfitter_cfg.c **** 			{0x0Du, 0x80u},
 391:.\Generated_Source\PSoC4/cyfitter_cfg.c **** 			{0x73u, 0x02u},
 392:.\Generated_Source\PSoC4/cyfitter_cfg.c **** 			{0x85u, 0x80u},
 393:.\Generated_Source\PSoC4/cyfitter_cfg.c **** 			{0x8Au, 0x04u},
 394:.\Generated_Source\PSoC4/cyfitter_cfg.c **** 			{0x9Bu, 0x02u},
 395:.\Generated_Source\PSoC4/cyfitter_cfg.c **** 			{0xC2u, 0xC0u},
 396:.\Generated_Source\PSoC4/cyfitter_cfg.c **** 			{0xDCu, 0x20u},
 397:.\Generated_Source\PSoC4/cyfitter_cfg.c **** 			{0xE4u, 0x40u},
 398:.\Generated_Source\PSoC4/cyfitter_cfg.c **** 			{0x3Eu, 0x04u},
 399:.\Generated_Source\PSoC4/cyfitter_cfg.c **** 			{0x44u, 0x02u},
 400:.\Generated_Source\PSoC4/cyfitter_cfg.c **** 			{0x6Bu, 0x02u},
 401:.\Generated_Source\PSoC4/cyfitter_cfg.c **** 			{0x6Du, 0x40u},
 402:.\Generated_Source\PSoC4/cyfitter_cfg.c **** 			{0xCEu, 0x01u},
 403:.\Generated_Source\PSoC4/cyfitter_cfg.c **** 			{0xD0u, 0x04u},
 404:.\Generated_Source\PSoC4/cyfitter_cfg.c **** 			{0xDAu, 0x03u},
 405:.\Generated_Source\PSoC4/cyfitter_cfg.c **** 			{0x01u, 0x40u},
 406:.\Generated_Source\PSoC4/cyfitter_cfg.c **** 			{0x07u, 0x02u},
 407:.\Generated_Source\PSoC4/cyfitter_cfg.c **** 			{0x84u, 0x02u},
 408:.\Generated_Source\PSoC4/cyfitter_cfg.c **** 			{0x8Au, 0x04u},
 409:.\Generated_Source\PSoC4/cyfitter_cfg.c **** 			{0x95u, 0x40u},
 410:.\Generated_Source\PSoC4/cyfitter_cfg.c **** 			{0x96u, 0x04u},
 411:.\Generated_Source\PSoC4/cyfitter_cfg.c **** 			{0x9Cu, 0x02u},
 412:.\Generated_Source\PSoC4/cyfitter_cfg.c **** 			{0x9Fu, 0x02u},
 413:.\Generated_Source\PSoC4/cyfitter_cfg.c **** 			{0xC0u, 0x03u},
ARM GAS  C:\Users\jhorel\AppData\Local\Temp\ccC8x7vY.s 			page 15


 414:.\Generated_Source\PSoC4/cyfitter_cfg.c **** 			{0xE4u, 0x04u},
 415:.\Generated_Source\PSoC4/cyfitter_cfg.c **** 			{0x10u, 0x01u},
 416:.\Generated_Source\PSoC4/cyfitter_cfg.c **** 			{0x11u, 0x01u},
 417:.\Generated_Source\PSoC4/cyfitter_cfg.c **** 		};
 418:.\Generated_Source\PSoC4/cyfitter_cfg.c **** 
 419:.\Generated_Source\PSoC4/cyfitter_cfg.c **** 
 420:.\Generated_Source\PSoC4/cyfitter_cfg.c **** 
 421:.\Generated_Source\PSoC4/cyfitter_cfg.c **** 		CYPACKED typedef struct {
 422:.\Generated_Source\PSoC4/cyfitter_cfg.c **** 			void CYFAR *address;
 423:.\Generated_Source\PSoC4/cyfitter_cfg.c **** 			uint16 size;
 424:.\Generated_Source\PSoC4/cyfitter_cfg.c **** 		} CYPACKED_ATTR cfg_memset_t;
 425:.\Generated_Source\PSoC4/cyfitter_cfg.c **** 
 426:.\Generated_Source\PSoC4/cyfitter_cfg.c **** 		static const cfg_memset_t CYCODE cfg_memset_list [] = {
 427:.\Generated_Source\PSoC4/cyfitter_cfg.c **** 			/* address, size */
 428:.\Generated_Source\PSoC4/cyfitter_cfg.c **** 			{(void CYFAR *)(CYDEV_UDB_P0_U0_BASE), 1024u},
 429:.\Generated_Source\PSoC4/cyfitter_cfg.c **** 			{(void CYFAR *)(CYDEV_UDB_DSI0_BASE), 1024u},
 430:.\Generated_Source\PSoC4/cyfitter_cfg.c **** 		};
 431:.\Generated_Source\PSoC4/cyfitter_cfg.c **** 
 432:.\Generated_Source\PSoC4/cyfitter_cfg.c **** 		uint8 CYDATA i;
 433:.\Generated_Source\PSoC4/cyfitter_cfg.c **** 
 434:.\Generated_Source\PSoC4/cyfitter_cfg.c **** 		/* Zero out critical memory blocks before beginning configuration */
 435:.\Generated_Source\PSoC4/cyfitter_cfg.c **** 		for (i = 0u; i < (sizeof(cfg_memset_list)/sizeof(cfg_memset_list[0])); i++)
 349              		.loc 1 435 0
 350 0138 0024     		mov	r4, #0
 351 013a 10E0     		b	.L14
 352              	.LVL24:
 353              	.L15:
 354              	.LBB4:
 436:.\Generated_Source\PSoC4/cyfitter_cfg.c **** 		{
 437:.\Generated_Source\PSoC4/cyfitter_cfg.c **** 			const cfg_memset_t CYCODE * CYDATA ms = &cfg_memset_list[i];
 438:.\Generated_Source\PSoC4/cyfitter_cfg.c **** 			CYMEMZERO(ms->address, (size_t)(uint32)(ms->size));
 355              		.loc 1 438 0 discriminator 3
 356 013c 3F48     		ldr	r0, .L16+8
 357 013e 6300     		lsl	r3, r4, #1
 358 0140 1A19     		add	r2, r3, r4
 359 0142 5200     		lsl	r2, r2, #1
 360 0144 8218     		add	r2, r0, r2
 361 0146 9188     		ldrh	r1, [r2, #4]
 362 0148 1B19     		add	r3, r3, r4
 363 014a 5B00     		lsl	r3, r3, #1
 364 014c 1A5A     		ldrh	r2, [r3, r0]
 365 014e C318     		add	r3, r0, r3
 366 0150 5888     		ldrh	r0, [r3, #2]
 367 0152 0004     		lsl	r0, r0, #16
 368 0154 1043     		orr	r0, r2
 369 0156 FFF7FEFF 		bl	CYMEMZERO
 370              	.LVL25:
 371              	.LBE4:
 435:.\Generated_Source\PSoC4/cyfitter_cfg.c **** 		{
 372              		.loc 1 435 0 discriminator 3
 373 015a 0134     		add	r4, r4, #1
 374              	.LVL26:
 375 015c E4B2     		uxtb	r4, r4
 376              	.LVL27:
 377              	.L14:
 435:.\Generated_Source\PSoC4/cyfitter_cfg.c **** 		{
 378              		.loc 1 435 0 is_stmt 0 discriminator 1
ARM GAS  C:\Users\jhorel\AppData\Local\Temp\ccC8x7vY.s 			page 16


 379 015e 012C     		cmp	r4, #1
 380 0160 ECD9     		bls	.L15
 439:.\Generated_Source\PSoC4/cyfitter_cfg.c **** 		}
 440:.\Generated_Source\PSoC4/cyfitter_cfg.c **** 
 441:.\Generated_Source\PSoC4/cyfitter_cfg.c **** 		cfg_write_bytes32(cy_cfg_addr_table, cy_cfg_data_table);
 381              		.loc 1 441 0 is_stmt 1
 382 0162 3649     		ldr	r1, .L16+8
 383 0164 081C     		mov	r0, r1
 384 0166 0C30     		add	r0, r0, #12
 385 0168 3031     		add	r1, r1, #48
 386 016a FFF7FEFF 		bl	cfg_write_bytes32
 387              	.LVL28:
 442:.\Generated_Source\PSoC4/cyfitter_cfg.c **** 
 443:.\Generated_Source\PSoC4/cyfitter_cfg.c **** 		/* Perform normal device configuration. Order is not critical for these items. */
 444:.\Generated_Source\PSoC4/cyfitter_cfg.c **** 		CY_SET_XTND_REG16((void CYFAR *)(CYREG_UDB_BCTL0_DRV), 0x0100u);
 388              		.loc 1 444 0
 389 016e 8022     		mov	r2, #128
 390 0170 5200     		lsl	r2, r2, #1
 391 0172 334B     		ldr	r3, .L16+12
 392 0174 1A80     		strh	r2, [r3]
 445:.\Generated_Source\PSoC4/cyfitter_cfg.c **** 		CY_SET_XTND_REG8((void CYFAR *)(CYREG_UDB_BCTL0_DRV + 0x2u), 0x01u);
 393              		.loc 1 445 0
 394 0176 0120     		mov	r0, #1
 395 0178 324B     		ldr	r3, .L16+16
 396 017a 1870     		strb	r0, [r3]
 446:.\Generated_Source\PSoC4/cyfitter_cfg.c **** 
 447:.\Generated_Source\PSoC4/cyfitter_cfg.c **** 		/* HSIOM Starting address: CYDEV_HSIOM_BASE */
 448:.\Generated_Source\PSoC4/cyfitter_cfg.c **** 		CY_SET_XTND_REG32((void CYFAR *)(CYDEV_HSIOM_BASE), 0xEEEE0000u);
 397              		.loc 1 448 0
 398 017c 324A     		ldr	r2, .L16+20
 399 017e 334B     		ldr	r3, .L16+24
 400 0180 1A60     		str	r2, [r3]
 449:.\Generated_Source\PSoC4/cyfitter_cfg.c **** 		CY_SET_XTND_REG32((void CYFAR *)(CYREG_HSIOM_PORT_SEL1), 0x00080000u);
 401              		.loc 1 449 0
 402 0182 8022     		mov	r2, #128
 403 0184 1203     		lsl	r2, r2, #12
 404 0186 324B     		ldr	r3, .L16+28
 405 0188 1A60     		str	r2, [r3]
 450:.\Generated_Source\PSoC4/cyfitter_cfg.c **** 		CY_SET_XTND_REG32((void CYFAR *)(CYREG_HSIOM_PORT_SEL4), 0x00000008u);
 406              		.loc 1 450 0
 407 018a 0822     		mov	r2, #8
 408 018c 314B     		ldr	r3, .L16+32
 409 018e 1A60     		str	r2, [r3]
 451:.\Generated_Source\PSoC4/cyfitter_cfg.c **** 
 452:.\Generated_Source\PSoC4/cyfitter_cfg.c **** 		/* UDB_PA_0 Starting address: CYDEV_UDB_PA0_BASE */
 453:.\Generated_Source\PSoC4/cyfitter_cfg.c **** 		CY_SET_XTND_REG32((void CYFAR *)(CYDEV_UDB_PA0_BASE), 0x00990000u);
 410              		.loc 1 453 0
 411 0190 9922     		mov	r2, #153
 412 0192 1204     		lsl	r2, r2, #16
 413 0194 304B     		ldr	r3, .L16+36
 414 0196 1A60     		str	r2, [r3]
 454:.\Generated_Source\PSoC4/cyfitter_cfg.c **** 
 455:.\Generated_Source\PSoC4/cyfitter_cfg.c **** 		/* UDB_PA_1 Starting address: CYDEV_UDB_PA1_BASE */
 456:.\Generated_Source\PSoC4/cyfitter_cfg.c **** 		CY_SET_XTND_REG32((void CYFAR *)(CYDEV_UDB_PA1_BASE), 0x00990004u);
 415              		.loc 1 456 0
 416 0198 304B     		ldr	r3, .L16+40
 417 019a 3149     		ldr	r1, .L16+44
ARM GAS  C:\Users\jhorel\AppData\Local\Temp\ccC8x7vY.s 			page 17


 418 019c 0B60     		str	r3, [r1]
 457:.\Generated_Source\PSoC4/cyfitter_cfg.c **** 		CY_SET_XTND_REG32((void CYFAR *)(CYREG_UDB_PA1_CFG4), 0xA0020000u);
 419              		.loc 1 457 0
 420 019e 314C     		ldr	r4, .L16+48
 421              	.LVL29:
 422 01a0 3149     		ldr	r1, .L16+52
 423 01a2 0C60     		str	r4, [r1]
 458:.\Generated_Source\PSoC4/cyfitter_cfg.c **** 
 459:.\Generated_Source\PSoC4/cyfitter_cfg.c **** 		/* UDB_PA_2 Starting address: CYDEV_UDB_PA2_BASE */
 460:.\Generated_Source\PSoC4/cyfitter_cfg.c **** 		CY_SET_XTND_REG32((void CYFAR *)(CYDEV_UDB_PA2_BASE), 0x00990000u);
 424              		.loc 1 460 0
 425 01a4 3149     		ldr	r1, .L16+56
 426 01a6 0A60     		str	r2, [r1]
 461:.\Generated_Source\PSoC4/cyfitter_cfg.c **** 
 462:.\Generated_Source\PSoC4/cyfitter_cfg.c **** 		/* UDB_PA_3 Starting address: CYDEV_UDB_PA3_BASE */
 463:.\Generated_Source\PSoC4/cyfitter_cfg.c **** 		CY_SET_XTND_REG32((void CYFAR *)(CYDEV_UDB_PA3_BASE), 0x00990004u);
 427              		.loc 1 463 0
 428 01a8 314A     		ldr	r2, .L16+60
 429 01aa 1360     		str	r3, [r2]
 464:.\Generated_Source\PSoC4/cyfitter_cfg.c **** 		CY_SET_XTND_REG32((void CYFAR *)(CYREG_UDB_PA3_CFG4), 0x00A00000u);
 430              		.loc 1 464 0
 431 01ac A022     		mov	r2, #160
 432 01ae 1204     		lsl	r2, r2, #16
 433 01b0 304B     		ldr	r3, .L16+64
 434 01b2 1A60     		str	r2, [r3]
 465:.\Generated_Source\PSoC4/cyfitter_cfg.c **** 
 466:.\Generated_Source\PSoC4/cyfitter_cfg.c **** 		/* TCPWM_CNT1 Starting address: CYDEV_TCPWM_CNT1_TR_CTRL0 */
 467:.\Generated_Source\PSoC4/cyfitter_cfg.c **** 		CY_SET_XTND_REG32((void CYFAR *)(CYREG_TCPWM_CNT1_TR_CTRL0), 0x000E00F0u);
 435              		.loc 1 467 0
 436 01b4 304A     		ldr	r2, .L16+68
 437 01b6 314B     		ldr	r3, .L16+72
 438 01b8 1A60     		str	r2, [r3]
 468:.\Generated_Source\PSoC4/cyfitter_cfg.c **** 
 469:.\Generated_Source\PSoC4/cyfitter_cfg.c **** 		/* TCPWM_CNT3 Starting address: CYDEV_TCPWM_CNT3_TR_CTRL0 */
 470:.\Generated_Source\PSoC4/cyfitter_cfg.c **** 		CY_SET_XTND_REG32((void CYFAR *)(CYREG_TCPWM_CNT3_TR_CTRL0), 0x00050070u);
 439              		.loc 1 470 0
 440 01ba 314A     		ldr	r2, .L16+76
 441 01bc 314B     		ldr	r3, .L16+80
 442 01be 1A60     		str	r2, [r3]
 471:.\Generated_Source\PSoC4/cyfitter_cfg.c **** 
 472:.\Generated_Source\PSoC4/cyfitter_cfg.c **** 		/* INT_SELECT Starting address: CYDEV_CPUSS_INT_SEL */
 473:.\Generated_Source\PSoC4/cyfitter_cfg.c **** 		CY_SET_XTND_REG32((void CYFAR *)(CYREG_CPUSS_INT_SEL), 0x00000004u);
 443              		.loc 1 473 0
 444 01c0 0423     		mov	r3, #4
 445 01c2 314A     		ldr	r2, .L16+84
 446 01c4 1360     		str	r3, [r2]
 474:.\Generated_Source\PSoC4/cyfitter_cfg.c **** 
 475:.\Generated_Source\PSoC4/cyfitter_cfg.c **** 		/* INT_CONFIG Starting address: CYDEV_UDB_INT_CFG */
 476:.\Generated_Source\PSoC4/cyfitter_cfg.c **** 		CY_SET_XTND_REG32((void CYFAR *)(CYREG_UDB_INT_CFG), 0x00000004u);
 447              		.loc 1 476 0
 448 01c6 314A     		ldr	r2, .L16+88
 449 01c8 1360     		str	r3, [r2]
 477:.\Generated_Source\PSoC4/cyfitter_cfg.c **** 
 478:.\Generated_Source\PSoC4/cyfitter_cfg.c **** 		/* Enable digital routing */
 479:.\Generated_Source\PSoC4/cyfitter_cfg.c **** 		CY_SET_XTND_REG8((void *)CYREG_UDB_UDBIF_BANK_CTL, CY_GET_XTND_REG8((void *)CYREG_UDB_UDBIF_BANK_
 450              		.loc 1 479 0
 451 01ca 314B     		ldr	r3, .L16+92
ARM GAS  C:\Users\jhorel\AppData\Local\Temp\ccC8x7vY.s 			page 18


 452 01cc 1978     		ldrb	r1, [r3]
 453 01ce 0222     		mov	r2, #2
 454 01d0 0A43     		orr	r2, r1
 455 01d2 1A70     		strb	r2, [r3]
 480:.\Generated_Source\PSoC4/cyfitter_cfg.c **** 
 481:.\Generated_Source\PSoC4/cyfitter_cfg.c **** 		/* Enable UDB array */
 482:.\Generated_Source\PSoC4/cyfitter_cfg.c **** 		CY_SET_XTND_REG8((void *)CYREG_UDB_UDBIF_WAIT_CFG, (uint8)((CY_GET_XTND_REG8((void *)CYREG_UDB_UD
 456              		.loc 1 482 0
 457 01d4 2F4C     		ldr	r4, .L16+96
 458 01d6 2278     		ldrb	r2, [r4]
 459 01d8 3C21     		mov	r1, #60
 460 01da 8A43     		bic	r2, r1
 461 01dc 2839     		sub	r1, r1, #40
 462 01de 0A43     		orr	r2, r1
 463 01e0 2270     		strb	r2, [r4]
 483:.\Generated_Source\PSoC4/cyfitter_cfg.c **** 		CY_SET_XTND_REG8((void *)CYREG_UDB_UDBIF_BANK_CTL, (uint8)(CY_GET_XTND_REG8((void *)CYREG_UDB_UDB
 464              		.loc 1 483 0
 465 01e2 1978     		ldrb	r1, [r3]
 466 01e4 1622     		mov	r2, #22
 467 01e6 0A43     		orr	r2, r1
 468 01e8 1A70     		strb	r2, [r3]
 469              	.LBE3:
 484:.\Generated_Source\PSoC4/cyfitter_cfg.c **** 	}
 485:.\Generated_Source\PSoC4/cyfitter_cfg.c **** 
 486:.\Generated_Source\PSoC4/cyfitter_cfg.c **** 	/* Perform second pass device configuration. These items must be configured in specific order afte
 487:.\Generated_Source\PSoC4/cyfitter_cfg.c **** 	/* IOPINS0_0 Starting address: CYDEV_GPIO_PRT0_BASE */
 488:.\Generated_Source\PSoC4/cyfitter_cfg.c **** 	CY_SET_XTND_REG32((void CYFAR *)(CYDEV_GPIO_PRT0_BASE), 0x00000030u);
 470              		.loc 1 488 0
 471 01ea 3022     		mov	r2, #48
 472 01ec 2A4B     		ldr	r3, .L16+100
 473 01ee 1A60     		str	r2, [r3]
 489:.\Generated_Source\PSoC4/cyfitter_cfg.c **** 	CY_SET_XTND_REG32((void CYFAR *)(CYREG_GPIO_PRT0_PC), 0x00DA4000u);
 474              		.loc 1 489 0
 475 01f0 2A4A     		ldr	r2, .L16+104
 476 01f2 2B4B     		ldr	r3, .L16+108
 477 01f4 1A60     		str	r2, [r3]
 490:.\Generated_Source\PSoC4/cyfitter_cfg.c **** 
 491:.\Generated_Source\PSoC4/cyfitter_cfg.c **** 	/* IOPINS0_1 Starting address: CYDEV_GPIO_PRT1_BASE */
 492:.\Generated_Source\PSoC4/cyfitter_cfg.c **** 	CY_SET_XTND_REG32((void CYFAR *)(CYDEV_GPIO_PRT1_BASE), 0x00000011u);
 478              		.loc 1 492 0
 479 01f6 1122     		mov	r2, #17
 480 01f8 2A4B     		ldr	r3, .L16+112
 481 01fa 1A60     		str	r2, [r3]
 493:.\Generated_Source\PSoC4/cyfitter_cfg.c **** 	CY_SET_XTND_REG32((void CYFAR *)(CYREG_GPIO_PRT1_PC), 0x00276002u);
 482              		.loc 1 493 0
 483 01fc 2A4A     		ldr	r2, .L16+116
 484 01fe 2B4B     		ldr	r3, .L16+120
 485 0200 1A60     		str	r2, [r3]
 494:.\Generated_Source\PSoC4/cyfitter_cfg.c **** 	CY_SET_XTND_REG32((void CYFAR *)(CYREG_GPIO_PRT1_INTR_CFG), 0x00000002u);
 486              		.loc 1 494 0
 487 0202 2B4B     		ldr	r3, .L16+124
 488 0204 0222     		mov	r2, #2
 489 0206 1A60     		str	r2, [r3]
 495:.\Generated_Source\PSoC4/cyfitter_cfg.c **** 
 496:.\Generated_Source\PSoC4/cyfitter_cfg.c **** 	/* IOPINS0_2 Starting address: CYDEV_GPIO_PRT2_BASE */
 497:.\Generated_Source\PSoC4/cyfitter_cfg.c **** 	CY_SET_XTND_REG32((void CYFAR *)(CYDEV_GPIO_PRT2_BASE), 0x00000048u);
 490              		.loc 1 497 0
ARM GAS  C:\Users\jhorel\AppData\Local\Temp\ccC8x7vY.s 			page 19


 491 0208 4632     		add	r2, r2, #70
 492 020a 2A4B     		ldr	r3, .L16+128
 493 020c 1A60     		str	r2, [r3]
 498:.\Generated_Source\PSoC4/cyfitter_cfg.c **** 	CY_SET_XTND_REG32((void CYFAR *)(CYREG_GPIO_PRT2_PC), 0x00186D80u);
 494              		.loc 1 498 0
 495 020e 2A4A     		ldr	r2, .L16+132
 496 0210 2A4B     		ldr	r3, .L16+136
 497 0212 1A60     		str	r2, [r3]
 499:.\Generated_Source\PSoC4/cyfitter_cfg.c **** 
 500:.\Generated_Source\PSoC4/cyfitter_cfg.c **** 	/* IOPINS0_3 Starting address: CYDEV_GPIO_PRT3_BASE */
 501:.\Generated_Source\PSoC4/cyfitter_cfg.c **** 	CY_SET_XTND_REG32((void CYFAR *)(CYDEV_GPIO_PRT3_BASE), 0x000000E0u);
 498              		.loc 1 501 0
 499 0214 E022     		mov	r2, #224
 500 0216 2A4B     		ldr	r3, .L16+140
 501 0218 1A60     		str	r2, [r3]
 502:.\Generated_Source\PSoC4/cyfitter_cfg.c **** 	CY_SET_XTND_REG32((void CYFAR *)(CYREG_GPIO_PRT3_PC), 0x00DB6240u);
 502              		.loc 1 502 0
 503 021a 2A4A     		ldr	r2, .L16+144
 504 021c 2A4B     		ldr	r3, .L16+148
 505 021e 1A60     		str	r2, [r3]
 503:.\Generated_Source\PSoC4/cyfitter_cfg.c **** 
 504:.\Generated_Source\PSoC4/cyfitter_cfg.c **** 	/* IOPINS0_4 Starting address: CYDEV_GPIO_PRT4_BASE */
 505:.\Generated_Source\PSoC4/cyfitter_cfg.c **** 	CY_SET_XTND_REG32((void CYFAR *)(CYDEV_GPIO_PRT4_BASE), 0x00000001u);
 506              		.loc 1 505 0
 507 0220 2A4B     		ldr	r3, .L16+152
 508 0222 1860     		str	r0, [r3]
 506:.\Generated_Source\PSoC4/cyfitter_cfg.c **** 	CY_SET_XTND_REG32((void CYFAR *)(CYREG_GPIO_PRT4_PC), 0x00000006u);
 509              		.loc 1 506 0
 510 0224 0622     		mov	r2, #6
 511 0226 2A4B     		ldr	r3, .L16+156
 512 0228 1A60     		str	r2, [r3]
 507:.\Generated_Source\PSoC4/cyfitter_cfg.c **** 
 508:.\Generated_Source\PSoC4/cyfitter_cfg.c **** 
 509:.\Generated_Source\PSoC4/cyfitter_cfg.c **** 	/* Setup clocks based on selections from Clock DWR */
 510:.\Generated_Source\PSoC4/cyfitter_cfg.c **** 	ClockSetup();
 513              		.loc 1 510 0
 514 022a FFF7E9FE 		bl	ClockSetup
 515              	.LVL30:
 511:.\Generated_Source\PSoC4/cyfitter_cfg.c **** 
 512:.\Generated_Source\PSoC4/cyfitter_cfg.c **** 	/* Perform basic analog initialization to defaults */
 513:.\Generated_Source\PSoC4/cyfitter_cfg.c **** 	AnalogSetDefault();
 516              		.loc 1 513 0
 517 022e FFF7FEFF 		bl	AnalogSetDefault
 518              	.LVL31:
 514:.\Generated_Source\PSoC4/cyfitter_cfg.c **** 
 515:.\Generated_Source\PSoC4/cyfitter_cfg.c **** }
 519              		.loc 1 515 0
 520              		@ sp needed
 521 0232 10BD     		pop	{r4, pc}
 522              	.L17:
 523              		.align	2
 524              	.L16:
 525 0234 6CF02E40 		.word	1076818028
 526 0238 1C700F40 		.word	1074753564
 527 023c 00000000 		.word	.LANCHOR0
 528 0240 00600F40 		.word	1074749440
 529 0244 02600F40 		.word	1074749442
ARM GAS  C:\Users\jhorel\AppData\Local\Temp\ccC8x7vY.s 			page 20


 530 0248 0000EEEE 		.word	-286392320
 531 024c 00000240 		.word	1073872896
 532 0250 00010240 		.word	1073873152
 533 0254 00040240 		.word	1073873920
 534 0258 00500F40 		.word	1074745344
 535 025c 04009900 		.word	10027012
 536 0260 10500F40 		.word	1074745360
 537 0264 000002A0 		.word	-1610481664
 538 0268 14500F40 		.word	1074745364
 539 026c 20500F40 		.word	1074745376
 540 0270 30500F40 		.word	1074745392
 541 0274 34500F40 		.word	1074745396
 542 0278 F0000E00 		.word	917744
 543 027c 60012040 		.word	1075839328
 544 0280 70000500 		.word	327792
 545 0284 E0012040 		.word	1075839456
 546 0288 20001040 		.word	1074790432
 547 028c 00800F40 		.word	1074757632
 548 0290 00700F40 		.word	1074753536
 549 0294 01700F40 		.word	1074753537
 550 0298 00000440 		.word	1074003968
 551 029c 0040DA00 		.word	14303232
 552 02a0 08000440 		.word	1074003976
 553 02a4 00010440 		.word	1074004224
 554 02a8 02602700 		.word	2580482
 555 02ac 08010440 		.word	1074004232
 556 02b0 0C010440 		.word	1074004236
 557 02b4 00020440 		.word	1074004480
 558 02b8 806D1800 		.word	1600896
 559 02bc 08020440 		.word	1074004488
 560 02c0 00030440 		.word	1074004736
 561 02c4 4062DB00 		.word	14377536
 562 02c8 08030440 		.word	1074004744
 563 02cc 00040440 		.word	1074004992
 564 02d0 08040440 		.word	1074005000
 565              		.cfi_endproc
 566              	.LFE8:
 567              		.size	cyfitter_cfg, .-cyfitter_cfg
 568              		.section	.rodata
 569              		.align	2
 570              		.set	.LANCHOR0,. + 0
 571              		.type	cfg_memset_list.4765, %object
 572              		.size	cfg_memset_list.4765, 12
 573              	cfg_memset_list.4765:
 574 0000 00300F40 		.word	1074737152
 575 0004 0004     		.short	1024
 576 0006 00400F40 		.4byte	1074741248
 577 000a 0004     		.short	1024
 578              		.type	cy_cfg_addr_table.4759, %object
 579              		.size	cy_cfg_addr_table.4759, 36
 580              	cy_cfg_addr_table.4759:
 581 000c 01000F40 		.word	1074724865
 582 0010 25300F40 		.word	1074737189
 583 0014 19310F40 		.word	1074737433
 584 0018 01330F40 		.word	1074737921
 585 001c 02400F40 		.word	1074741250
 586 0020 09410F40 		.word	1074741513
ARM GAS  C:\Users\jhorel\AppData\Local\Temp\ccC8x7vY.s 			page 21


 587 0024 07420F40 		.word	1074741767
 588 0028 0A430F40 		.word	1074742026
 589 002c 02600F40 		.word	1074749442
 590              		.type	cy_cfg_data_table.4760, %object
 591              		.size	cy_cfg_data_table.4760, 188
 592              	cy_cfg_data_table.4760:
 593 0030 80       		.byte	-128
 594 0031 0D       		.byte	13
 595 0032 0C       		.byte	12
 596 0033 04       		.byte	4
 597 0034 12       		.byte	18
 598 0035 01       		.byte	1
 599 0036 16       		.byte	22
 600 0037 01       		.byte	1
 601 0038 26       		.byte	38
 602 0039 0C       		.byte	12
 603 003a 2E       		.byte	46
 604 003b 02       		.byte	2
 605 003c 30       		.byte	48
 606 003d 08       		.byte	8
 607 003e 32       		.byte	50
 608 003f 02       		.byte	2
 609 0040 34       		.byte	52
 610 0041 01       		.byte	1
 611 0042 36       		.byte	54
 612 0043 04       		.byte	4
 613 0044 3E       		.byte	62
 614 0045 10       		.byte	16
 615 0046 40       		.byte	64
 616 0047 30       		.byte	48
 617 0048 41       		.byte	65
 618 0049 05       		.byte	5
 619 004a 45       		.byte	69
 620 004b D1       		.byte	-47
 621 004c 47       		.byte	71
 622 004d 20       		.byte	32
 623 004e 48       		.byte	72
 624 004f 23       		.byte	35
 625 0050 49       		.byte	73
 626 0051 FF       		.byte	-1
 627 0052 4A       		.byte	74
 628 0053 FF       		.byte	-1
 629 0054 4B       		.byte	75
 630 0055 FF       		.byte	-1
 631 0056 4D       		.byte	77
 632 0057 A0       		.byte	-96
 633 0058 4F       		.byte	79
 634 0059 04       		.byte	4
 635 005a 50       		.byte	80
 636 005b 18       		.byte	24
 637 005c 52       		.byte	82
 638 005d 80       		.byte	-128
 639 005e 54       		.byte	84
 640 005f 05       		.byte	5
 641 0060 56       		.byte	86
 642 0061 04       		.byte	4
 643 0062 58       		.byte	88
ARM GAS  C:\Users\jhorel\AppData\Local\Temp\ccC8x7vY.s 			page 22


 644 0063 04       		.byte	4
 645 0064 5A       		.byte	90
 646 0065 04       		.byte	4
 647 0066 5B       		.byte	91
 648 0067 04       		.byte	4
 649 0068 5F       		.byte	95
 650 0069 01       		.byte	1
 651 006a 60       		.byte	96
 652 006b 40       		.byte	64
 653 006c 62       		.byte	98
 654 006d C0       		.byte	-64
 655 006e 64       		.byte	100
 656 006f 40       		.byte	64
 657 0070 65       		.byte	101
 658 0071 40       		.byte	64
 659 0072 66       		.byte	102
 660 0073 C0       		.byte	-64
 661 0074 68       		.byte	104
 662 0075 C0       		.byte	-64
 663 0076 6A       		.byte	106
 664 0077 C0       		.byte	-64
 665 0078 6C       		.byte	108
 666 0079 C0       		.byte	-64
 667 007a 6E       		.byte	110
 668 007b C0       		.byte	-64
 669 007c 00       		.byte	0
 670 007d 40       		.byte	64
 671 007e 09       		.byte	9
 672 007f 02       		.byte	2
 673 0080 0A       		.byte	10
 674 0081 10       		.byte	16
 675 0082 10       		.byte	16
 676 0083 20       		.byte	32
 677 0084 13       		.byte	19
 678 0085 80       		.byte	-128
 679 0086 18       		.byte	24
 680 0087 40       		.byte	64
 681 0088 19       		.byte	25
 682 0089 40       		.byte	64
 683 008a 1A       		.byte	26
 684 008b 14       		.byte	20
 685 008c 42       		.byte	66
 686 008d 10       		.byte	16
 687 008e 48       		.byte	72
 688 008f 22       		.byte	34
 689 0090 49       		.byte	73
 690 0091 01       		.byte	1
 691 0092 50       		.byte	80
 692 0093 02       		.byte	2
 693 0094 51       		.byte	81
 694 0095 02       		.byte	2
 695 0096 59       		.byte	89
 696 0097 41       		.byte	65
 697 0098 5A       		.byte	90
 698 0099 04       		.byte	4
 699 009a 63       		.byte	99
 700 009b 40       		.byte	64
ARM GAS  C:\Users\jhorel\AppData\Local\Temp\ccC8x7vY.s 			page 23


 701 009c 73       		.byte	115
 702 009d 80       		.byte	-128
 703 009e 87       		.byte	-121
 704 009f 40       		.byte	64
 705 00a0 C0       		.byte	-64
 706 00a1 01       		.byte	1
 707 00a2 C2       		.byte	-62
 708 00a3 0C       		.byte	12
 709 00a4 C4       		.byte	-60
 710 00a5 05       		.byte	5
 711 00a6 D0       		.byte	-48
 712 00a7 02       		.byte	2
 713 00a8 D2       		.byte	-46
 714 00a9 08       		.byte	8
 715 00aa D6       		.byte	-42
 716 00ab 0B       		.byte	11
 717 00ac D8       		.byte	-40
 718 00ad 01       		.byte	1
 719 00ae E4       		.byte	-28
 720 00af 22       		.byte	34
 721 00b0 87       		.byte	-121
 722 00b1 02       		.byte	2
 723 00b2 E6       		.byte	-26
 724 00b3 40       		.byte	64
 725 00b4 0A       		.byte	10
 726 00b5 04       		.byte	4
 727 00b6 0D       		.byte	13
 728 00b7 80       		.byte	-128
 729 00b8 73       		.byte	115
 730 00b9 02       		.byte	2
 731 00ba 85       		.byte	-123
 732 00bb 80       		.byte	-128
 733 00bc 8A       		.byte	-118
 734 00bd 04       		.byte	4
 735 00be 9B       		.byte	-101
 736 00bf 02       		.byte	2
 737 00c0 C2       		.byte	-62
 738 00c1 C0       		.byte	-64
 739 00c2 DC       		.byte	-36
 740 00c3 20       		.byte	32
 741 00c4 E4       		.byte	-28
 742 00c5 40       		.byte	64
 743 00c6 3E       		.byte	62
 744 00c7 04       		.byte	4
 745 00c8 44       		.byte	68
 746 00c9 02       		.byte	2
 747 00ca 6B       		.byte	107
 748 00cb 02       		.byte	2
 749 00cc 6D       		.byte	109
 750 00cd 40       		.byte	64
 751 00ce CE       		.byte	-50
 752 00cf 01       		.byte	1
 753 00d0 D0       		.byte	-48
 754 00d1 04       		.byte	4
 755 00d2 DA       		.byte	-38
 756 00d3 03       		.byte	3
 757 00d4 01       		.byte	1
ARM GAS  C:\Users\jhorel\AppData\Local\Temp\ccC8x7vY.s 			page 24


 758 00d5 40       		.byte	64
 759 00d6 07       		.byte	7
 760 00d7 02       		.byte	2
 761 00d8 84       		.byte	-124
 762 00d9 02       		.byte	2
 763 00da 8A       		.byte	-118
 764 00db 04       		.byte	4
 765 00dc 95       		.byte	-107
 766 00dd 40       		.byte	64
 767 00de 96       		.byte	-106
 768 00df 04       		.byte	4
 769 00e0 9C       		.byte	-100
 770 00e1 02       		.byte	2
 771 00e2 9F       		.byte	-97
 772 00e3 02       		.byte	2
 773 00e4 C0       		.byte	-64
 774 00e5 03       		.byte	3
 775 00e6 E4       		.byte	-28
 776 00e7 04       		.byte	4
 777 00e8 10       		.byte	16
 778 00e9 01       		.byte	1
 779 00ea 11       		.byte	17
 780 00eb 01       		.byte	1
 781              		.text
 782              	.Letext0:
 783              		.file 2 "c:\\program files (x86)\\cypress\\psoc creator\\3.3\\psoc creator\\import\\gnu\\arm\\4.9.
 784              		.file 3 ".\\Generated_Source\\PSoC4\\cytypes.h"
 785              		.file 4 ".\\Generated_Source\\PSoC4\\CyLib.h"
 786              		.file 5 ".\\Generated_Source\\PSoC4\\CyLFClk.h"